(lp0
(lp1
(lp2
S'mur'
p3
ag3
ag3
ag3
ag3
ag3
ag3
ag3
ag3
ag3
ag3
ag3
ag3
ag3
ag3
ag3
ag3
ag3
ag3
ag3
ag3
ag3
ag3
ag3
ag3
ag3
ag3
ag3
ag3
ag3
ag3
ag3
ag3
ag3
ag3
ag3
ag3
ag3
ag3
ag3
ag3
ag3
ag3
ag3
ag3
ag3
ag3
ag3
ag3
ag3
aa(lp4
g3
ag3
ag3
aS'herbe'
p5
ag5
ag5
ag5
ag5
ag5
ag5
ag5
ag5
ag5
ag5
ag5
ag5
ag5
ag5
ag5
ag5
ag3
ag3
ag3
ag5
ag3
ag3
ag3
ag3
ag3
ag5
ag5
ag5
ag5
ag5
ag5
ag5
ag5
ag5
ag5
ag5
ag5
ag5
ag5
ag5
ag3
ag3
ag3
ag5
ag3
ag3
aa(lp6
g3
ag3
ag3
ag5
ag3
ag3
ag3
ag3
ag3
ag5
ag3
ag3
ag3
ag5
ag3
ag3
ag3
ag5
ag3
ag3
ag3
ag3
ag3
ag5
ag3
ag3
ag3
ag3
ag3
ag5
ag3
ag3
ag3
ag5
ag3
ag3
ag3
ag5
ag3
ag3
ag3
aS'herbe'
p7
ag3
ag5
ag3
ag3
ag3
aS'herbe'
p8
ag3
ag3
aa(lp9
g3
ag5
ag5
ag5
ag3
ag3
ag3
ag3
ag3
ag5
ag3
ag3
ag3
ag5
ag3
ag3
ag3
ag5
ag3
ag3
ag3
ag5
ag5
ag5
ag5
ag5
ag5
ag5
ag5
ag5
ag3
ag3
ag3
ag5
ag3
ag3
ag3
ag5
ag3
ag3
ag3
ag7
ag3
ag5
ag5
ag5
ag5
ag5
ag3
ag3
aa(lp10
g3
ag5
ag3
ag3
ag3
ag3
ag3
ag3
ag3
ag3
ag3
ag3
ag3
ag3
ag3
ag3
ag3
ag5
ag3
ag3
ag3
ag5
ag3
ag3
ag3
ag3
ag3
ag5
ag3
ag3
ag3
ag3
ag3
ag5
ag3
ag3
ag3
ag3
ag3
ag3
ag3
ag7
ag3
ag3
ag3
ag3
ag3
ag8
ag3
ag3
aa(lp11
g3
ag5
ag3
ag3
ag3
ag5
ag5
ag5
ag3
ag3
ag3
ag3
ag3
ag3
ag3
ag5
ag5
ag5
ag5
ag5
ag5
ag5
ag3
ag3
ag3
ag3
ag3
ag5
ag3
ag3
ag3
ag3
ag3
ag5
ag3
ag3
ag3
ag3
ag3
ag3
ag3
ag5
ag3
ag3
ag3
ag3
ag3
ag5
ag3
ag3
aa(lp12
g3
ag3
ag3
ag3
ag3
ag3
ag3
ag5
ag3
ag3
ag7
ag7
ag3
ag3
ag3
ag5
ag3
ag3
ag3
ag5
ag3
ag3
ag3
ag3
ag3
ag3
ag3
ag5
ag3
ag3
ag3
ag3
ag3
ag3
ag3
ag3
ag3
ag3
ag3
ag3
ag3
ag5
ag3
ag3
ag3
ag3
ag3
ag3
ag3
ag3
aa(lp13
g3
ag3
ag3
ag5
ag3
ag3
ag3
ag5
ag3
ag3
ag3
ag7
ag3
ag5
ag5
ag5
ag3
ag3
ag3
ag5
ag3
ag3
ag3
ag5
ag5
ag5
ag5
ag5
ag3
ag3
ag3
ag5
ag3
ag3
ag3
ag5
ag5
ag5
ag5
ag5
ag5
ag5
ag5
ag5
ag5
ag5
ag3
ag3
ag3
ag3
aa(lp14
g3
ag3
ag3
ag5
ag3
ag3
ag3
ag5
ag3
ag3
ag3
ag7
ag3
ag5
ag3
ag3
ag3
ag3
ag3
ag3
ag3
ag3
ag3
ag5
ag3
ag3
ag3
ag3
ag3
ag3
ag3
ag5
ag3
ag3
ag3
ag3
ag3
ag5
ag3
ag3
ag3
ag5
ag3
ag3
ag3
ag5
ag3
ag3
ag3
ag3
aa(lp15
g3
ag5
ag5
ag5
ag3
ag3
ag3
ag5
ag5
ag5
ag5
ag5
ag5
ag5
ag3
ag3
ag3
ag5
ag3
ag3
ag3
ag5
ag5
ag5
ag3
ag3
ag3
ag3
ag3
ag5
ag5
ag5
ag5
ag5
ag3
ag3
ag3
ag5
ag3
ag3
ag3
ag5
ag3
ag3
ag3
ag5
ag3
ag3
ag3
ag3
aa(lp16
g3
ag3
ag3
ag5
ag3
ag3
ag3
ag5
ag3
ag3
ag3
ag5
ag3
ag3
ag3
ag3
ag3
ag5
ag3
ag3
ag3
ag3
ag3
ag5
ag3
ag3
ag3
ag3
ag3
ag5
ag3
ag3
ag3
ag3
ag3
ag3
ag3
ag5
ag3
ag3
ag3
ag3
ag3
ag3
ag3
ag5
ag3
ag3
ag3
ag3
aa(lp17
g3
ag3
ag3
ag5
ag5
ag5
ag5
ag5
ag3
ag3
ag3
ag5
ag3
ag3
ag3
ag5
ag5
ag5
ag5
ag5
ag3
ag3
ag3
ag5
ag5
ag5
ag5
ag5
ag5
ag5
ag3
ag3
ag3
ag3
ag3
ag5
ag5
ag5
ag5
ag5
ag3
ag3
ag3
ag5
ag5
ag5
ag5
ag5
ag3
ag3
aa(lp18
g3
ag3
ag3
ag3
ag3
ag5
ag3
ag3
ag3
ag3
ag3
ag5
ag3
ag3
ag3
ag5
ag3
ag3
ag3
ag3
ag3
ag3
ag3
ag3
ag3
ag5
ag3
ag3
ag3
ag3
ag3
ag3
ag3
ag3
ag3
ag3
ag3
ag3
ag3
ag5
ag3
ag3
ag3
ag3
ag3
ag3
ag3
ag8
ag3
ag3
aa(lp19
g3
ag5
ag3
ag3
ag3
ag5
ag3
ag3
ag3
ag5
ag5
ag5
ag3
ag3
ag3
ag5
ag3
ag3
ag3
ag3
ag3
ag5
ag3
ag3
ag3
ag5
ag3
ag3
ag3
ag3
ag3
ag5
ag5
ag5
ag3
ag3
ag3
ag3
ag3
ag5
ag3
ag3
ag3
ag3
ag3
ag3
ag3
ag5
ag3
ag3
aa(lp20
g3
ag5
ag3
ag3
ag3
ag5
ag3
ag3
ag3
ag3
ag3
ag3
ag3
ag3
ag3
ag5
ag3
ag3
ag3
ag3
ag3
ag5
ag3
ag3
ag3
ag3
ag3
ag3
ag3
ag3
ag3
ag5
ag3
ag3
ag3
ag3
ag3
ag3
ag3
ag3
ag3
ag3
ag3
ag3
ag3
ag3
ag3
ag7
ag7
ag3
aa(lp21
g3
ag5
ag5
ag5
ag5
ag5
ag5
ag5
ag3
ag3
ag3
ag3
ag3
ag5
ag5
ag5
ag5
ag5
ag5
ag5
ag5
ag5
ag5
ag5
ag3
ag3
ag3
ag5
ag3
ag3
ag3
ag5
ag3
ag3
ag3
ag5
ag5
ag5
ag3
ag3
ag3
ag5
ag5
ag5
ag5
ag5
ag5
ag5
ag3
ag3
aa(lp22
S'mur'
p23
ag23
ag23
ag23
ag23
ag23
ag3
ag5
ag3
ag3
ag3
ag3
ag3
ag5
ag3
ag3
ag3
ag5
ag3
ag3
ag3
ag3
ag3
ag5
ag3
ag3
ag3
ag5
ag3
ag3
ag3
ag5
ag3
ag3
ag3
ag5
ag3
ag3
ag3
ag3
ag3
ag5
ag3
ag3
ag3
ag3
ag3
ag8
ag3
ag3
aa(lp24
g23
aS'herbe'
p25
ag25
ag25
ag23
ag23
ag3
ag5
ag3
ag3
ag3
ag5
ag5
ag5
ag3
ag3
ag3
ag5
ag3
ag3
ag3
ag3
ag3
ag5
ag5
ag5
ag5
ag5
ag3
ag3
ag3
ag5
ag5
ag5
ag5
ag5
ag3
ag3
ag3
ag5
ag5
ag7
ag7
ag7
ag3
ag3
ag3
ag5
ag3
ag3
aa(lp26
g23
ag25
ag25
ag25
ag23
ag23
ag3
ag25
ag3
ag3
ag3
ag5
ag3
ag3
ag3
ag3
ag3
ag3
ag3
ag3
ag3
ag3
ag3
ag5
ag3
ag3
ag3
ag5
ag3
ag3
ag3
ag3
ag3
ag3
ag3
ag5
ag3
ag3
ag3
ag5
ag3
ag3
ag3
ag7
ag3
ag3
ag3
ag8
ag3
ag3
aa(lp27
g23
ag25
ag25
ag25
ag25
ag25
ag25
ag25
ag3
ag5
ag5
ag5
ag3
ag3
ag3
ag3
ag3
ag3
ag3
ag5
ag5
ag5
ag5
ag5
ag3
ag3
ag3
ag5
ag3
ag3
ag3
ag3
ag3
ag3
ag3
ag5
ag3
ag3
ag3
ag5
ag3
ag3
ag3
ag5
ag3
ag3
ag3
ag5
ag3
ag3
aa(lp28
g23
ag25
ag25
ag25
ag23
ag23
ag3
ag3
ag3
ag3
ag3
ag5
ag3
ag3
ag3
ag3
ag3
ag3
ag3
ag3
ag3
ag5
ag3
ag3
ag3
ag3
ag3
ag5
ag3
ag3
ag3
ag3
ag3
ag3
ag3
ag5
ag3
ag3
ag3
ag3
ag3
ag3
ag3
ag5
ag3
ag3
ag3
ag3
ag3
ag3
aa(lp29
g23
ag25
ag25
ag25
ag23
ag23
ag3
ag5
ag3
ag3
ag3
ag5
ag3
ag3
ag3
ag3
ag3
ag5
ag3
ag3
ag3
ag5
ag3
ag3
ag3
ag5
ag5
ag5
ag5
ag5
ag5
ag5
ag5
ag5
ag5
ag5
ag5
ag5
ag3
ag3
ag3
ag5
ag5
ag5
ag5
ag5
ag3
ag3
ag3
ag3
aa(lp30
g3
ag3
ag3
ag3
ag3
ag3
ag3
ag5
ag3
ag3
ag3
ag3
ag3
ag3
ag3
ag3
ag3
ag5
ag3
ag3
ag3
ag3
ag3
ag3
ag3
ag3
ag3
ag3
ag3
ag5
ag3
ag3
ag3
ag5
ag3
ag3
ag3
ag5
ag3
ag3
ag3
ag5
ag3
ag3
ag3
ag3
ag3
ag3
ag3
ag3
aa(lp31
g3
ag3
ag3
ag3
ag3
ag5
ag5
ag5
ag5
ag5
ag3
ag3
ag3
ag5
ag5
ag5
ag5
ag5
ag5
ag5
ag3
ag3
ag3
ag5
ag3
ag3
ag3
ag3
ag3
ag5
ag3
ag3
ag3
ag5
ag3
ag3
ag3
ag5
ag5
ag5
ag5
ag5
ag3
ag3
ag3
ag3
ag3
ag3
ag3
ag3
aa(lp32
g3
ag3
ag3
ag3
ag3
ag5
ag3
ag3
ag3
ag5
ag3
ag3
ag3
ag3
ag3
ag3
ag3
ag3
ag3
ag5
ag3
ag3
ag3
ag5
ag3
ag3
ag3
ag3
ag3
ag5
ag3
ag3
ag3
ag3
ag3
ag3
ag3
ag5
ag3
ag3
ag3
ag5
ag3
ag3
ag3
ag3
ag3
ag3
ag3
ag3
aa(lp33
g3
ag5
ag5
ag5
ag5
ag5
ag3
ag3
ag3
ag5
ag3
ag3
ag3
ag3
ag3
ag3
ag3
ag3
ag3
ag5
ag5
ag5
ag5
ag5
ag5
ag5
ag5
ag5
ag5
ag5
ag5
ag5
ag3
ag3
ag3
ag5
ag5
ag5
ag3
ag3
ag3
ag5
ag5
ag5
ag5
ag5
ag5
ag5
ag3
ag3
aa(lp34
g3
ag5
ag3
ag3
ag3
ag5
ag3
ag3
ag3
ag5
ag3
ag3
ag3
ag3
ag3
ag3
ag3
ag3
ag3
ag3
ag3
ag5
ag3
ag3
ag3
ag3
ag3
ag5
ag3
ag3
ag3
ag5
ag3
ag3
ag3
ag5
ag3
ag3
ag3
ag3
ag3
ag5
ag3
ag3
ag3
ag5
ag3
ag3
ag3
ag3
aa(lp35
g3
ag5
ag3
ag3
ag3
ag5
ag3
ag3
ag3
ag5
ag5
ag5
ag5
ag5
ag5
ag5
ag3
ag3
ag3
ag3
ag3
ag5
ag3
ag3
ag3
ag3
ag3
ag5
ag3
ag3
ag3
ag5
ag3
ag3
ag3
ag5
ag3
ag3
ag3
ag5
ag5
ag5
ag3
ag3
ag3
ag5
ag3
ag3
ag3
ag3
aa(lp36
g3
ag5
ag3
ag3
ag3
ag3
ag3
ag3
ag3
ag5
ag3
ag3
ag3
ag3
ag3
ag3
ag3
ag3
ag3
ag3
ag3
ag3
ag3
ag3
ag3
ag3
ag3
ag5
ag3
ag3
ag3
ag3
ag3
ag3
ag3
ag3
ag3
ag3
ag3
ag3
ag3
ag5
ag3
ag3
ag3
ag5
ag3
ag3
ag3
ag3
aa(lp37
g3
ag5
ag5
ag5
ag3
ag3
ag3
ag5
ag5
ag5
ag3
ag3
ag3
ag3
ag3
ag3
ag3
ag5
ag5
ag5
ag3
ag3
ag3
ag5
ag5
ag5
ag5
ag5
ag5
ag5
ag3
ag3
ag3
ag5
ag3
ag3
ag3
ag5
ag3
ag3
ag3
ag5
ag3
ag3
ag3
ag5
ag3
ag3
ag3
ag3
aa(lp38
g3
ag5
ag3
ag3
ag3
ag3
ag3
ag3
ag3
ag5
ag3
ag3
ag3
ag3
ag3
ag3
ag3
ag5
ag3
ag3
ag3
ag3
ag3
ag5
ag3
ag3
ag3
ag3
ag3
ag5
ag3
ag3
ag3
ag5
ag3
ag3
ag3
ag5
ag3
ag3
ag3
ag5
ag3
ag3
ag3
ag3
ag3
ag3
ag3
ag3
aa(lp39
g3
ag5
ag3
ag3
ag3
ag5
ag3
ag3
ag3
ag5
ag5
ag5
ag5
ag5
ag3
ag3
ag3
ag5
ag3
ag3
ag3
ag5
ag5
ag5
ag3
ag3
ag3
ag3
ag3
ag5
ag3
ag3
ag3
ag5
ag5
ag5
ag5
ag5
ag5
ag5
ag5
ag5
ag5
ag5
ag3
ag3
ag3
ag5
ag3
ag3
aa(lp40
g3
ag3
ag3
ag3
ag3
ag5
ag3
ag3
ag3
ag5
ag3
ag3
ag3
ag5
ag3
ag3
ag3
ag5
ag3
ag3
ag3
ag3
ag3
ag3
ag3
ag3
ag3
ag3
ag3
ag3
ag3
ag3
ag3
ag5
ag3
ag3
ag3
ag5
ag3
ag3
ag3
ag3
ag3
ag5
ag3
ag3
ag3
ag8
aS'mur'
p41
ag3
aa(lp42
g3
ag3
ag3
ag5
ag5
ag5
ag5
ag5
ag5
ag5
ag3
ag3
ag3
ag5
ag5
ag5
ag5
ag5
ag3
ag3
ag3
ag3
ag3
ag3
ag3
ag3
ag3
ag5
ag3
ag3
ag3
ag5
ag5
ag5
ag3
ag3
ag3
ag5
ag3
ag3
ag3
ag7
ag7
ag5
ag3
ag3
ag3
ag5
ag3
ag41
aa(lp43
g3
ag3
ag3
ag5
ag3
ag3
ag3
ag5
ag3
ag3
ag3
ag3
ag3
ag5
ag3
ag3
ag3
ag3
ag3
ag3
ag3
ag3
ag3
ag3
ag3
ag3
ag3
ag5
ag3
ag3
ag3
ag5
ag3
ag3
ag3
ag3
ag3
ag3
ag3
ag3
ag3
ag7
ag3
ag3
ag3
ag3
ag3
ag8
ag3
ag3
aa(lp44
g3
ag5
ag5
ag5
ag3
ag3
ag3
ag5
ag3
ag3
ag3
ag5
ag5
ag5
ag3
ag3
ag3
ag3
ag3
ag5
ag5
ag5
ag5
ag5
ag5
ag5
ag5
ag5
ag5
ag5
ag5
ag5
ag3
ag3
ag3
ag5
ag3
ag3
ag3
ag3
ag3
ag5
ag3
ag3
ag3
ag5
ag5
ag5
ag3
ag3
aa(lp45
g3
ag3
ag3
ag3
ag3
ag3
ag3
ag3
ag3
ag3
ag3
ag3
ag3
ag5
ag3
ag3
ag3
ag3
ag3
ag3
ag3
ag5
ag3
ag3
ag3
ag3
ag3
ag3
ag3
ag3
ag3
ag5
ag3
ag3
ag3
ag5
ag3
ag3
ag3
ag3
ag3
ag5
ag3
ag3
ag3
ag5
ag3
ag3
ag3
ag3
aa(lp46
g3
ag3
ag3
ag3
ag3
ag5
ag3
ag3
ag3
ag5
ag3
ag3
ag3
ag5
ag3
ag3
ag3
ag3
ag3
ag3
ag3
ag5
ag3
ag3
ag3
ag3
ag3
ag3
ag3
ag7
ag7
ag5
ag3
ag3
ag3
ag5
ag5
ag5
ag5
ag5
ag5
ag5
ag5
ag5
ag5
ag5
ag3
ag3
ag3
ag3
aa(lp47
g3
ag3
ag3
ag3
ag3
ag5
ag3
ag3
ag3
ag5
ag3
ag3
ag3
ag5
ag3
ag3
ag3
ag3
ag3
ag3
ag3
ag3
ag3
ag3
ag3
ag3
ag3
ag3
ag3
ag7
ag3
ag3
ag3
ag3
ag3
ag3
ag3
ag3
ag3
ag5
ag3
ag3
ag3
ag3
ag3
ag5
ag3
ag3
ag3
ag3
aa(lp48
g3
ag5
ag5
ag5
ag5
ag5
ag5
ag5
ag5
ag5
ag3
ag3
ag3
ag5
ag5
ag5
ag3
ag3
ag3
ag5
ag3
ag3
ag3
ag5
ag5
ag5
ag5
ag5
ag5
ag5
ag3
ag3
ag3
ag5
ag3
ag3
ag3
ag3
ag3
ag5
ag3
ag3
ag3
ag3
ag3
ag5
ag5
ag5
ag3
ag3
aa(lp49
g3
ag3
ag3
ag5
ag3
ag3
ag3
ag5
ag3
ag3
ag3
ag3
ag3
ag5
ag3
ag3
ag3
ag3
ag3
ag5
ag3
ag3
ag3
ag5
ag3
ag3
ag3
ag3
ag3
ag5
ag3
ag3
ag3
ag5
ag3
ag3
ag3
ag3
ag3
ag3
ag3
ag3
ag3
ag3
ag3
ag5
ag3
ag3
ag3
ag3
aa(lp50
g3
ag3
ag3
ag5
ag3
ag3
ag3
ag5
ag3
ag3
ag3
ag5
ag5
ag5
ag3
ag3
ag3
ag5
ag5
ag5
ag5
ag5
ag5
ag5
ag3
ag3
ag3
ag3
ag3
ag5
ag5
ag5
ag5
ag5
ag5
ag5
ag5
ag5
ag3
ag3
ag3
ag5
ag3
ag3
ag3
ag5
ag3
ag3
ag3
ag3
aa(lp51
g3
ag3
ag3
ag3
ag3
ag3
ag3
ag5
ag3
ag3
ag3
ag3
ag3
ag5
ag3
ag3
ag3
ag3
ag3
ag3
ag3
ag3
ag3
ag5
ag3
ag3
ag3
ag3
ag3
ag3
ag3
ag5
ag3
ag3
ag3
ag3
ag3
ag5
ag3
ag3
ag3
ag5
ag3
ag3
ag3
ag3
ag3
ag3
ag3
ag3
aa(lp52
g3
ag5
ag3
ag3
ag3
ag5
ag5
ag5
ag5
ag5
ag3
ag3
ag3
ag5
ag5
ag5
ag3
ag3
ag3
ag3
ag3
ag3
ag3
ag5
aS'herbe'
p53
ag53
ag3
ag3
ag3
ag3
ag3
ag5
ag3
ag3
ag3
ag3
ag3
ag5
ag5
ag5
ag5
ag5
ag5
ag5
ag3
ag25
ag25
ag25
ag25
ag3
aa(lp54
g3
ag5
ag3
ag3
ag3
ag5
ag3
ag3
ag3
ag5
ag3
ag3
ag3
ag5
ag3
ag3
ag3
ag3
ag3
ag3
ag3
ag3
ag3
ag3
ag3
ag53
ag3
ag3
ag3
ag3
ag3
ag3
ag3
ag3
ag3
ag3
ag3
ag3
ag3
ag3
ag3
ag3
ag3
ag5
ag3
ag25
ag25
ag25
ag25
ag3
aa(lp55
g3
ag5
ag5
ag5
ag5
ag5
ag3
ag3
ag3
ag5
ag5
ag5
ag5
ag5
ag3
ag3
ag3
ag5
ag5
ag5
ag53
ag53
ag3
ag3
ag3
ag5
ag3
ag3
ag3
ag5
ag3
ag3
ag3
ag5
ag3
ag3
ag3
ag3
ag3
ag3
ag3
ag3
ag3
ag5
ag5
ag25
ag25
ag25
ag25
ag3
aa(lp56
g3
ag3
ag3
ag5
ag3
ag3
ag3
ag3
ag3
ag5
ag3
ag3
ag3
ag5
ag3
ag3
ag3
ag5
ag3
ag3
ag3
ag53
ag3
ag3
ag3
ag5
ag3
ag3
ag3
ag5
ag3
ag3
ag3
ag5
ag3
ag3
ag3
ag3
ag3
ag3
ag3
ag3
ag3
ag5
ag3
ag25
ag25
ag25
ag25
ag3
aa(lp57
g3
ag3
ag3
ag5
ag3
ag3
ag3
ag5
ag53
ag5
ag3
ag3
ag3
ag5
ag53
ag5
ag53
ag5
ag3
ag3
ag3
ag5
ag3
ag3
ag53
ag5
ag53
ag53
ag53
ag5
ag53
ag5
ag3
ag5
ag53
ag5
ag53
ag5
ag53
ag5
ag53
ag5
ag53
ag53
ag3
ag25
ag25
ag25
ag25
ag3
aa(lp58
g3
ag3
ag3
ag3
ag3
ag3
ag3
ag3
ag3
ag3
ag3
ag3
ag3
ag3
ag3
ag3
ag3
ag3
ag3
ag3
ag3
ag3
ag3
ag3
ag3
ag3
ag3
ag3
ag3
ag3
ag3
ag3
ag3
ag3
ag3
ag3
ag3
ag3
ag3
ag3
ag3
ag3
ag53
ag3
ag3
ag25
ag25
ag25
ag25
ag3
aa(lp59
g3
ag3
ag3
ag3
ag3
ag3
ag3
ag3
ag3
ag3
ag3
ag3
ag3
ag3
ag3
ag3
ag3
ag3
ag3
ag3
ag3
ag3
ag3
ag3
ag3
ag3
ag3
ag3
ag3
ag3
ag3
ag3
ag3
ag3
ag3
ag3
ag3
ag3
ag3
ag3
ag3
ag3
ag3
ag3
ag3
ag3
ag3
ag3
ag3
ag3
aaa(lp60
(lp61
S''
p62
ag62
ag62
ag62
ag62
ag62
ag62
ag62
ag62
ag62
ag62
ag62
ag62
ag62
ag62
ag62
ag62
ag62
ag62
ag62
ag62
ag62
ag62
ag62
ag62
ag62
ag62
ag62
ag62
ag62
ag62
ag62
ag62
ag62
ag62
ag62
ag62
ag62
ag62
ag62
ag62
ag62
ag62
ag62
ag62
ag62
ag62
ag62
ag62
ag62
aa(lp63
g62
ag62
ag62
ag62
aS'ennemi'
p64
ag62
ag62
ag62
ag62
ag62
aS'ennemi'
p65
ag62
ag62
ag62
ag62
ag62
ag62
ag62
ag62
ag62
ag62
ag62
ag62
ag62
ag62
ag62
ag62
ag62
ag62
ag62
ag62
ag62
ag62
ag62
ag62
ag62
ag62
ag62
ag62
ag62
ag62
ag62
ag62
ag62
ag62
ag62
ag62
ag62
ag62
ag62
aa(lp66
g62
ag62
ag62
ag62
ag62
ag62
ag62
ag62
ag62
ag62
ag62
ag62
ag62
ag62
ag62
ag62
ag62
ag62
ag62
ag62
ag62
ag62
ag62
ag62
ag62
ag62
ag62
ag62
ag62
ag62
ag62
ag62
ag62
ag65
ag62
ag62
ag62
ag62
ag62
ag62
ag62
ag62
ag62
ag62
ag62
ag62
ag62
ag62
ag62
ag62
aa(lp67
g62
ag62
ag62
ag62
ag62
ag62
ag62
ag62
ag62
ag62
ag62
ag62
ag62
ag62
ag62
ag62
ag62
aS'ennemi'
p68
ag62
ag62
ag62
ag62
ag62
ag62
ag62
ag62
ag62
ag62
ag62
ag62
ag62
ag62
ag62
ag62
ag62
ag62
ag62
ag62
ag62
ag62
ag62
ag62
ag62
ag62
ag62
ag65
ag62
ag62
ag62
ag62
aa(lp69
g62
ag62
ag62
ag62
ag62
ag62
ag62
ag62
ag62
ag62
ag62
ag62
ag62
ag62
ag62
ag62
ag62
ag62
ag62
ag62
ag62
ag62
ag62
ag62
ag62
ag62
ag62
ag62
ag62
ag62
ag62
ag62
ag62
ag62
ag62
ag62
ag62
ag62
ag62
ag62
ag62
ag62
ag62
ag62
ag62
ag62
ag62
ag62
ag62
ag62
aa(lp70
g62
ag62
ag62
ag62
ag62
ag62
ag62
ag62
ag62
ag62
ag62
ag62
ag62
ag62
ag62
ag62
ag62
ag62
ag62
ag62
ag62
ag62
ag62
ag62
ag62
ag62
ag62
ag64
ag62
ag62
ag62
ag62
ag62
aS'coffre'
p71
ag62
ag62
ag62
ag62
ag62
ag62
ag62
ag62
ag62
ag62
ag62
ag62
ag62
ag62
ag62
ag62
aa(lp72
g62
ag62
ag62
ag62
ag62
ag62
ag62
ag68
ag62
ag62
ag62
ag62
ag62
ag62
ag62
ag62
ag62
ag62
ag62
ag62
ag62
ag62
ag62
ag62
ag62
ag62
ag62
ag62
ag62
ag62
ag62
ag62
ag62
ag62
ag62
ag62
ag62
ag62
ag62
ag62
ag62
ag62
ag62
ag62
ag62
ag62
ag62
ag62
ag62
ag62
aa(lp73
g62
ag62
ag62
ag62
ag62
ag62
ag62
ag62
ag62
ag62
ag62
ag62
ag62
ag62
ag62
ag62
ag62
ag62
ag62
ag62
ag62
ag62
ag62
ag62
ag62
ag62
ag62
ag62
ag62
ag62
ag62
ag62
ag62
ag62
ag62
ag62
ag62
ag62
ag62
ag62
ag62
ag62
ag62
ag62
ag62
ag62
ag62
ag62
ag62
ag62
aa(lp74
g62
ag62
ag62
ag62
ag62
ag62
ag62
ag62
ag62
ag62
ag62
ag62
ag62
ag62
ag62
ag62
ag62
ag62
ag62
ag62
ag62
ag62
ag62
ag62
ag62
ag62
ag62
ag62
ag62
ag62
ag62
ag62
ag62
ag62
ag62
ag62
ag62
ag62
ag62
ag62
ag62
ag68
ag62
ag62
ag62
ag62
ag62
ag62
ag62
ag62
aa(lp75
g62
ag62
ag62
ag64
ag62
ag62
ag62
ag62
ag62
ag62
ag62
ag62
ag62
ag62
ag62
ag62
ag62
ag62
ag62
ag62
ag62
ag62
ag62
ag62
ag62
ag62
ag62
ag62
ag62
ag62
ag62
ag62
ag62
ag62
ag62
ag62
ag62
ag64
ag62
ag62
ag62
ag62
ag62
ag62
ag62
ag62
ag62
ag62
ag62
ag62
aa(lp76
g62
ag62
ag62
ag62
ag62
ag62
ag62
ag62
ag62
ag62
ag62
ag62
ag62
ag62
ag62
ag62
ag62
ag62
ag62
ag62
ag62
ag62
ag62
ag62
ag62
ag62
ag62
ag62
ag62
ag64
ag62
ag62
ag62
ag62
ag62
ag62
ag62
ag62
ag62
ag62
ag62
ag62
ag62
ag62
ag62
ag62
ag62
ag62
ag62
ag62
aa(lp77
g62
ag62
ag62
ag62
ag62
ag62
ag62
ag62
ag62
ag62
ag62
ag68
ag62
ag62
ag62
ag62
ag62
ag64
ag62
ag62
ag62
ag62
ag62
ag62
ag62
ag62
ag62
ag62
ag62
ag62
ag62
ag62
ag62
ag62
ag62
ag62
ag62
ag62
ag62
ag62
ag62
ag62
ag62
ag62
ag62
ag62
ag62
ag62
ag62
ag62
aa(lp78
g62
ag62
ag62
ag62
ag62
ag62
ag62
ag62
ag62
ag62
ag62
ag62
ag62
ag62
ag62
ag62
ag62
ag62
ag62
ag62
ag62
ag62
ag62
ag62
ag62
ag64
ag62
ag62
ag62
ag62
ag62
ag62
ag62
ag62
ag62
ag62
ag62
ag62
ag62
ag62
ag62
ag62
ag62
ag62
ag62
ag62
ag62
ag62
ag62
ag62
aa(lp79
g62
ag62
ag62
ag62
ag62
ag62
ag62
ag62
ag62
ag62
ag62
ag62
ag62
ag62
ag62
ag62
ag62
ag62
ag62
ag62
ag62
ag62
ag62
ag62
ag62
ag62
ag62
ag62
ag62
ag62
ag62
ag62
ag62
ag62
ag62
ag62
ag62
ag62
ag62
ag62
ag62
ag62
ag62
ag62
ag62
ag62
ag62
ag62
ag62
ag62
aa(lp80
g62
ag62
ag62
ag62
ag62
ag62
ag62
ag62
ag62
ag62
ag62
ag62
ag62
ag62
ag62
ag62
ag62
ag62
ag62
ag62
ag62
ag62
ag62
ag62
ag62
ag62
ag62
ag62
ag62
ag62
ag62
ag62
ag62
ag62
ag62
ag62
ag62
ag62
ag62
ag62
ag62
ag62
ag62
ag62
ag62
ag62
ag62
ag62
ag62
ag62
aa(lp81
g62
ag62
ag68
ag62
ag62
ag62
ag62
ag62
ag62
ag62
ag62
ag62
ag62
ag62
ag62
ag62
ag62
ag62
ag62
ag62
ag64
ag62
ag62
ag62
ag62
ag62
ag62
ag62
ag62
ag62
ag62
ag62
ag62
ag62
ag62
ag62
ag62
ag62
ag62
ag62
ag62
ag62
ag62
ag62
ag62
ag62
ag62
ag62
ag62
ag62
aa(lp82
g62
ag62
ag62
ag62
ag62
ag62
ag62
ag62
ag62
ag62
ag62
ag62
ag62
ag62
ag62
ag62
ag62
ag62
ag62
ag62
ag62
ag62
ag62
ag62
ag62
ag62
ag62
ag62
ag62
ag62
ag62
ag62
ag62
ag62
ag62
ag62
ag62
ag62
ag62
ag62
ag62
ag62
ag62
ag62
ag62
ag62
ag62
ag62
ag62
ag62
aa(lp83
g62
ag62
ag62
ag62
ag62
ag62
ag62
ag62
ag62
ag62
ag62
ag62
ag62
ag62
ag62
ag62
ag62
ag62
ag62
ag62
ag62
ag62
ag62
ag62
ag62
ag62
ag64
ag62
ag62
ag62
ag62
ag62
ag62
ag62
ag62
ag64
ag62
ag62
ag62
ag62
ag62
ag62
ag62
ag62
ag62
ag62
ag62
ag62
ag62
ag62
aa(lp84
g62
ag62
ag62
ag62
ag62
ag62
ag62
ag62
ag62
ag62
ag62
aS'ennemi'
p85
ag62
ag62
ag62
ag62
ag62
ag62
ag62
ag62
ag62
ag62
ag62
ag62
ag62
ag62
ag62
ag62
ag62
ag62
ag62
ag62
ag62
ag62
ag62
ag62
ag62
ag62
ag62
ag62
ag62
ag62
ag62
ag62
ag62
ag62
ag62
ag62
ag62
ag62
aa(lp86
g62
ag62
aS'boss'
p87
ag62
ag62
ag62
ag62
ag62
ag62
ag62
ag62
ag62
ag62
ag62
ag62
ag62
ag62
ag62
ag62
ag62
ag62
ag62
ag62
ag62
ag62
ag62
ag62
ag62
ag62
ag62
ag62
ag62
ag62
ag62
ag62
ag62
ag62
ag62
ag62
ag62
ag62
ag62
ag62
ag62
ag62
ag62
ag62
ag62
ag62
ag62
aa(lp88
g62
ag62
ag62
ag62
ag62
ag62
ag62
ag62
ag62
ag62
ag62
ag85
ag62
ag62
ag62
ag62
ag62
ag62
ag62
ag62
ag62
ag62
ag62
ag62
ag62
ag62
ag62
ag62
ag62
ag62
ag62
ag62
ag62
ag62
ag62
ag62
ag62
ag62
ag62
ag62
ag62
ag62
ag62
ag62
ag62
ag62
ag62
ag62
ag62
ag62
aa(lp89
g62
ag62
ag62
ag62
ag62
ag62
ag62
ag62
ag62
ag62
ag62
ag62
ag62
ag62
ag62
ag62
ag62
ag62
ag62
ag62
ag62
ag62
ag62
ag62
ag62
ag62
ag62
ag62
ag62
ag62
ag62
ag62
ag64
ag62
ag62
ag62
ag62
ag62
ag62
ag62
ag62
ag62
ag62
ag62
ag62
ag62
ag62
ag62
ag62
ag62
aa(lp90
g62
ag62
ag62
ag62
ag62
ag62
ag62
ag62
ag62
ag62
ag62
ag62
ag62
ag62
ag62
ag62
ag62
ag62
ag62
ag62
ag62
ag62
ag62
ag62
ag62
ag62
ag62
ag62
ag62
ag62
ag62
ag62
ag62
ag62
ag62
ag62
ag62
ag62
ag62
ag62
ag62
ag62
ag62
ag62
ag62
ag62
ag62
ag62
ag62
ag62
aa(lp91
g62
ag62
ag62
ag62
ag62
ag62
ag62
ag62
ag62
ag62
ag62
ag62
ag62
ag62
ag62
ag62
ag62
ag65
ag62
ag62
ag62
ag62
ag62
ag62
ag62
ag62
ag62
ag62
ag62
ag62
ag62
ag62
ag62
ag62
ag62
ag62
ag62
ag62
ag62
ag68
ag62
ag62
ag62
ag62
ag62
ag62
ag62
ag62
ag62
ag62
aa(lp92
g62
ag62
ag62
ag62
ag62
ag64
ag62
ag62
ag62
ag62
ag62
ag62
ag62
ag62
ag62
ag62
ag62
ag62
ag62
ag62
ag62
ag62
ag62
ag62
ag62
ag62
ag62
ag62
ag62
ag62
ag62
ag62
ag62
ag62
ag62
ag62
ag62
ag62
ag62
ag62
ag62
ag62
ag62
ag62
ag62
ag62
ag62
ag62
ag62
ag62
aa(lp93
g62
ag62
ag62
ag62
ag62
ag62
ag62
ag62
ag62
ag62
ag62
ag62
ag62
ag62
ag62
ag62
ag62
ag62
ag62
ag62
ag62
ag62
ag62
ag62
ag62
ag65
ag62
ag62
ag62
ag62
ag62
ag62
ag62
ag62
ag62
ag62
ag62
ag62
ag62
ag62
ag62
ag62
ag62
ag68
ag62
ag62
ag62
ag62
ag62
ag62
aa(lp94
g62
ag62
ag62
ag62
ag62
ag62
ag62
ag62
ag62
ag62
ag62
ag62
ag62
ag62
ag62
ag62
ag62
ag62
ag62
ag62
ag62
ag62
ag62
ag62
ag62
ag62
ag62
ag62
ag62
ag62
ag62
ag62
ag62
ag62
ag62
ag62
ag62
ag62
ag62
ag62
ag62
ag62
ag62
ag62
ag62
ag62
ag62
ag62
ag62
ag62
aa(lp95
g62
ag62
ag62
ag62
ag62
ag62
ag62
ag62
ag62
ag65
ag62
ag62
ag62
ag62
ag62
ag62
ag62
ag62
ag62
ag62
ag62
ag62
ag62
ag62
ag62
ag62
ag62
ag62
ag62
ag62
ag62
ag62
ag62
ag62
ag62
ag62
ag62
ag62
ag62
ag62
ag62
ag62
ag62
ag62
ag62
ag62
ag62
ag62
ag62
ag62
aa(lp96
g62
ag62
ag62
ag62
ag62
ag62
ag62
ag62
ag62
ag62
ag62
ag62
ag62
ag62
ag62
ag62
ag62
ag62
ag62
ag62
ag62
ag62
ag62
ag62
ag62
ag62
ag62
ag62
ag62
ag62
ag62
ag62
ag62
ag62
ag62
ag62
ag62
ag62
ag62
ag62
ag62
ag62
ag62
ag62
ag62
ag62
ag62
ag62
ag62
ag62
aa(lp97
g62
ag62
ag62
ag62
ag62
ag62
ag62
ag62
ag62
ag62
ag62
ag62
ag62
ag62
ag62
ag62
ag62
ag62
ag62
ag62
ag62
ag62
ag62
ag62
ag62
ag65
ag62
ag62
ag62
ag62
ag62
ag62
ag62
ag62
ag62
ag62
ag62
ag62
ag62
ag62
ag62
ag62
ag62
ag62
ag62
ag62
ag62
ag62
ag62
ag62
aa(lp98
g62
ag62
ag62
ag62
ag62
ag62
ag62
ag62
ag62
ag62
ag62
ag62
ag62
ag62
ag62
ag62
ag62
ag62
ag62
ag62
ag62
ag62
ag62
ag62
ag62
ag62
ag62
ag62
ag62
ag62
ag62
ag62
ag62
ag62
ag62
ag62
ag62
ag62
ag62
ag62
ag62
ag62
ag62
ag62
ag62
ag62
ag62
ag62
ag62
ag62
aa(lp99
g62
ag62
ag62
ag62
ag62
aS'coffre'
p100
ag62
ag62
ag62
ag62
ag62
ag62
ag62
ag62
ag62
ag62
ag62
ag62
ag62
ag62
ag62
ag100
ag62
ag62
ag62
ag62
ag62
ag62
ag62
ag62
ag62
ag62
ag62
ag62
ag62
ag62
ag62
ag62
ag62
ag62
ag62
ag62
ag62
ag62
ag62
ag62
ag62
ag62
ag62
ag62
aa(lp101
g62
ag62
ag62
ag62
ag62
ag64
ag62
ag62
ag62
ag62
ag62
ag62
ag62
ag62
ag62
ag62
ag62
ag62
ag62
ag62
ag62
ag62
ag62
ag62
ag62
ag62
ag62
ag62
ag62
ag62
ag62
ag62
ag62
ag62
ag62
ag62
ag62
ag62
ag62
ag62
ag62
ag62
ag62
ag62
ag62
ag62
ag62
ag62
ag62
ag62
aa(lp102
g62
ag62
ag62
ag62
ag62
ag62
ag62
ag62
ag62
ag62
ag62
ag62
ag62
ag62
ag62
ag62
ag62
ag62
ag62
ag62
ag62
ag62
ag62
ag62
ag62
ag62
ag62
ag62
ag62
ag62
ag62
ag62
ag62
ag62
ag62
ag62
ag62
ag62
ag62
ag62
ag62
ag62
ag62
ag68
ag62
ag62
ag62
ag62
ag62
ag62
aa(lp103
g62
ag62
ag62
ag62
ag62
ag62
ag62
ag62
ag62
ag62
ag62
ag62
ag62
ag65
ag62
ag62
ag62
ag62
ag62
ag62
ag62
ag62
ag62
ag62
ag62
ag62
ag62
ag62
ag62
ag62
ag62
ag62
ag62
ag62
ag62
ag62
ag62
ag62
ag62
ag62
ag62
ag62
ag62
ag62
ag62
ag62
ag62
ag85
ag62
ag62
aa(lp104
g62
ag62
ag62
ag62
ag62
ag62
ag62
ag62
ag62
ag62
ag62
ag62
ag62
ag62
ag62
ag62
ag62
ag62
ag62
ag62
ag68
ag62
ag62
ag62
ag62
ag62
ag65
ag62
ag62
ag62
ag62
ag62
ag62
ag62
ag62
ag62
ag62
ag62
ag62
ag62
ag62
ag62
ag62
ag62
ag62
ag62
ag62
ag85
ag62
ag62
aa(lp105
g62
ag62
ag62
ag62
ag62
ag62
ag62
ag62
ag62
ag62
ag62
ag62
ag62
ag62
ag62
ag62
ag62
ag62
ag62
ag62
ag62
ag62
ag62
ag62
ag62
ag62
ag62
ag62
ag62
ag62
ag62
ag62
ag62
ag62
ag62
ag62
ag62
ag62
ag62
ag62
ag62
ag62
ag62
ag62
ag62
ag62
ag62
ag62
ag62
ag62
aa(lp106
g62
ag62
ag62
ag62
ag62
ag62
ag62
ag62
ag62
ag62
ag62
ag62
ag62
ag62
ag62
ag62
ag62
ag62
ag62
ag62
ag62
aS'coffre'
p107
ag62
ag62
ag62
ag62
ag62
ag62
ag62
ag62
ag62
ag62
ag62
ag62
ag62
ag62
ag62
ag62
ag62
ag62
ag62
ag62
ag62
ag62
ag62
ag62
ag62
ag62
ag62
ag62
aa(lp108
g62
ag62
ag62
ag62
ag62
ag62
ag62
ag62
ag62
ag62
ag62
ag62
ag62
ag62
ag62
ag62
ag62
ag62
ag62
ag62
ag62
ag62
ag62
ag62
ag62
ag62
ag62
ag62
ag62
ag62
ag62
ag62
ag62
ag62
ag62
ag62
ag62
ag62
ag62
ag62
ag62
ag62
ag62
ag62
ag62
ag62
ag62
ag62
ag62
ag62
aa(lp109
g62
ag62
ag62
ag64
ag62
ag62
ag62
ag64
ag62
ag62
ag62
ag62
ag62
ag62
ag62
ag62
ag62
ag62
ag62
ag100
ag62
ag62
ag62
ag62
ag62
ag62
ag62
ag68
ag62
ag62
ag62
ag62
ag62
ag62
ag62
ag62
ag62
ag62
ag62
ag62
ag62
ag62
ag62
ag62
ag62
ag62
ag62
ag62
ag62
ag62
aa(lp110
g62
ag62
ag62
ag62
ag62
ag62
ag62
ag62
ag62
ag62
ag62
ag62
ag62
ag62
ag62
ag62
ag62
ag62
ag62
ag107
ag62
ag62
ag62
ag62
ag62
ag62
ag62
ag62
ag62
ag62
ag62
ag62
ag62
ag62
ag62
ag62
ag62
ag62
ag62
ag62
ag62
ag62
ag62
ag62
ag62
ag62
ag62
ag62
ag62
ag62
aa(lp111
g62
ag62
ag62
ag62
ag62
ag62
ag62
ag62
ag62
ag62
ag62
ag62
ag62
ag62
ag62
ag62
ag62
ag107
ag107
aS'ennemi'
p112
ag112
ag64
ag112
ag62
ag62
ag62
ag62
ag62
ag62
ag62
ag62
ag62
ag62
ag62
ag62
ag62
ag62
ag62
ag62
ag62
ag62
ag62
ag62
ag62
ag62
ag62
ag62
ag62
ag62
ag62
aa(lp113
g62
ag62
ag62
ag62
ag62
ag62
ag62
ag62
ag62
ag62
ag62
ag62
ag62
ag62
ag62
ag62
ag62
ag62
ag62
ag62
ag62
ag62
ag62
ag62
ag62
ag62
ag62
ag62
ag62
ag62
ag62
ag62
ag62
ag62
ag62
ag62
ag62
ag62
ag62
ag62
ag62
ag65
ag62
ag62
ag62
ag62
ag62
ag62
ag62
ag62
aa(lp114
g62
ag62
ag62
ag62
ag62
ag62
ag62
ag62
ag62
ag62
ag62
ag62
ag62
ag62
ag62
ag62
ag62
ag62
ag62
ag62
ag62
ag62
ag62
ag62
ag62
ag62
ag62
ag62
ag62
ag62
ag62
ag62
ag62
ag62
ag62
ag62
ag62
ag62
ag62
ag62
ag62
ag62
ag62
ag62
ag62
ag62
ag62
ag62
ag62
ag62
aa(lp115
g62
ag62
ag62
ag62
ag62
ag64
ag62
ag62
ag62
ag62
ag62
ag62
ag62
ag62
ag62
ag62
ag62
ag62
ag62
ag62
ag62
ag62
ag62
ag62
ag62
ag62
ag62
ag62
ag62
ag62
ag62
ag62
ag62
ag62
ag62
ag62
ag62
ag62
ag62
ag62
ag62
ag62
ag62
ag62
ag62
ag62
ag62
ag62
ag62
ag62
aa(lp116
g62
ag62
ag62
ag62
ag62
ag62
ag62
ag62
ag62
ag62
ag64
ag62
ag62
ag62
ag62
ag62
ag62
ag62
ag62
ag64
ag62
ag62
ag62
ag62
ag62
ag62
ag62
ag62
ag62
ag62
ag62
ag62
ag62
ag62
ag62
ag62
ag62
ag62
ag62
ag62
ag62
ag62
ag62
ag62
ag62
ag62
ag62
ag62
ag62
ag62
aa(lp117
g62
ag62
ag62
ag62
ag62
ag62
ag62
ag62
ag62
ag62
ag62
ag62
ag62
ag62
ag62
ag62
ag62
ag62
ag62
ag62
ag62
ag62
ag62
ag62
ag62
ag62
ag62
ag62
ag62
ag62
ag62
ag62
ag62
ag62
ag62
ag62
ag62
ag62
ag62
ag62
ag62
ag62
ag62
ag62
ag62
ag62
ag62
ag62
ag62
ag62
aa(lp118
g62
ag62
ag62
ag62
ag62
ag62
ag62
ag62
ag62
ag62
ag62
ag62
ag62
ag62
ag62
ag62
ag62
ag62
ag62
ag62
ag62
ag100
ag62
ag62
ag62
ag62
ag62
ag62
ag62
ag62
ag62
ag62
ag62
ag62
ag62
ag62
ag65
ag62
ag62
ag62
ag62
ag62
ag62
ag62
ag62
ag62
ag62
ag62
ag62
ag62
aa(lp119
g62
ag62
ag62
ag62
ag62
ag62
ag62
ag62
ag62
ag62
ag62
ag62
ag62
ag62
ag62
ag62
ag62
ag62
ag62
ag62
ag62
ag62
ag62
ag62
ag62
ag62
ag62
ag62
ag62
ag62
ag62
ag62
ag62
ag62
ag62
ag62
ag62
ag62
ag62
ag62
ag62
ag62
ag62
ag62
ag62
ag62
ag62
ag62
ag62
ag62
aa(lp120
g62
ag62
ag62
ag62
ag62
ag62
ag62
ag62
ag62
ag62
ag62
ag62
ag62
ag62
ag62
ag62
ag62
ag62
ag62
ag62
ag62
ag62
ag62
ag62
ag62
ag62
ag62
ag62
ag62
ag62
ag62
ag62
ag62
ag62
ag62
ag62
ag62
ag62
ag62
ag62
ag62
ag62
ag62
ag62
ag62
ag62
ag62
ag62
ag62
ag62
aaa.