(lp0
(lp1
(lp2
S'murs'
p3
ag3
ag3
ag3
ag3
ag3
ag3
ag3
ag3
ag3
ag3
ag3
ag3
ag3
ag3
ag3
ag3
ag3
ag3
ag3
ag3
ag3
ag3
ag3
ag3
ag3
ag3
ag3
ag3
ag3
ag3
ag3
ag3
ag3
ag3
ag3
ag3
ag3
ag3
ag3
ag3
ag3
ag3
ag3
ag3
ag3
ag3
ag3
ag3
ag3
aa(lp4
g3
ag3
ag3
ag3
ag3
ag3
ag3
ag3
ag3
ag3
ag3
ag3
ag3
ag3
ag3
ag3
ag3
ag3
ag3
ag3
ag3
ag3
ag3
ag3
ag3
ag3
ag3
ag3
ag3
ag3
ag3
ag3
ag3
ag3
ag3
ag3
ag3
ag3
ag3
ag3
ag3
ag3
ag3
ag3
ag3
ag3
ag3
ag3
ag3
ag3
aa(lp5
g3
ag3
aS'sols'
p6
ag6
ag6
ag6
ag6
ag6
ag6
ag6
ag6
ag6
ag6
ag6
ag6
ag6
ag6
ag6
ag6
ag6
ag6
ag6
ag6
ag6
ag6
ag6
ag6
ag6
ag6
ag6
ag6
ag6
ag6
ag6
ag6
ag6
ag6
ag6
ag6
ag6
ag6
ag6
ag6
ag6
ag6
ag6
ag6
ag6
ag3
ag3
aa(lp7
g3
ag3
ag6
ag6
ag6
ag6
ag6
ag6
ag6
ag6
ag6
ag6
ag6
aS'sols'
p8
ag6
ag6
ag6
ag6
ag6
aS'trous'
p9
ag6
ag6
ag6
ag6
ag6
ag6
ag6
ag6
ag6
ag6
ag6
ag6
ag6
ag6
ag6
ag6
ag6
ag6
ag6
ag6
ag6
ag6
ag6
ag6
ag6
ag6
ag6
ag6
ag3
ag3
aa(lp10
g3
ag3
ag6
ag6
ag6
ag6
ag6
aS'trous'
p11
ag8
ag6
ag6
ag6
ag8
ag8
ag8
ag6
ag6
ag8
ag11
ag11
ag6
ag6
ag6
ag6
ag6
ag6
ag6
ag6
ag6
ag6
ag6
ag6
ag6
ag6
ag6
ag6
ag6
ag6
ag6
ag6
ag6
ag6
ag6
ag6
ag6
ag6
ag6
ag6
ag3
ag3
aa(lp12
g3
ag3
ag6
ag6
ag8
aS'trous'
p13
ag11
ag13
ag13
ag8
ag8
ag8
ag8
ag8
ag8
ag8
ag13
ag8
ag9
ag9
ag9
ag8
ag6
ag6
ag6
ag6
ag6
ag6
ag6
ag6
ag6
ag6
ag6
ag6
ag6
ag6
ag6
ag6
ag6
ag6
ag6
ag6
ag6
ag6
ag6
ag6
ag6
ag6
ag3
ag3
aa(lp14
g3
ag3
ag6
ag6
ag8
ag8
ag11
ag11
ag13
ag13
ag13
ag13
ag8
ag8
ag13
ag13
ag13
ag13
ag9
ag9
ag9
ag9
ag9
ag6
ag6
ag6
ag6
ag6
ag6
ag6
ag6
ag6
ag6
ag6
ag6
ag6
ag6
ag6
ag6
ag6
ag6
ag6
ag6
ag6
ag6
ag6
ag6
ag6
ag3
ag3
aa(lp15
g3
ag3
ag6
ag6
ag6
ag8
ag8
ag8
ag13
ag13
ag13
ag13
ag13
ag13
ag13
ag13
ag13
ag13
ag8
ag8
ag9
ag8
ag6
ag6
ag6
ag6
ag6
ag6
ag6
ag6
ag6
ag6
ag6
ag6
ag6
ag6
ag6
ag6
ag6
ag6
ag6
ag6
ag6
ag6
ag6
ag6
ag6
ag6
ag3
ag3
aa(lp16
g3
ag3
ag6
ag6
ag6
ag8
ag8
ag8
ag11
ag11
ag11
ag11
ag11
ag13
ag13
ag13
ag13
ag13
ag8
ag8
ag8
ag8
ag6
ag6
ag6
ag6
ag6
ag6
ag6
ag6
ag6
ag6
ag6
ag6
ag6
ag6
ag6
ag6
ag6
ag6
ag6
ag6
ag6
ag6
ag6
ag6
ag6
ag6
ag3
ag3
aa(lp17
g3
ag3
ag6
ag6
ag6
ag8
ag8
ag13
ag11
ag11
ag11
ag11
ag11
ag13
ag13
ag13
ag13
ag13
ag8
ag8
ag8
ag9
ag8
ag6
ag6
ag6
ag6
ag6
ag6
ag6
ag6
ag6
ag6
ag6
ag6
ag6
ag6
ag6
ag6
ag6
ag6
ag6
ag6
ag6
ag6
ag6
ag6
ag6
ag3
ag3
aa(lp18
g3
ag3
ag6
ag6
ag6
ag8
ag13
ag13
ag11
ag11
ag11
ag11
ag11
ag13
ag13
ag13
ag13
ag13
ag13
ag13
ag9
ag9
ag9
ag6
ag6
ag6
ag6
ag6
ag6
ag6
ag6
ag6
ag6
ag6
ag6
ag6
ag6
ag6
ag6
ag6
ag6
ag6
ag6
ag6
ag6
ag6
ag6
ag6
ag3
ag3
aa(lp19
g3
ag3
ag6
ag6
ag6
ag8
ag8
ag8
ag11
ag11
ag11
ag11
ag11
ag13
ag13
ag11
ag11
ag11
ag13
ag13
ag13
ag9
ag6
ag6
ag6
ag6
ag6
ag6
ag6
ag6
ag6
ag6
ag6
ag6
ag6
ag6
ag6
ag6
ag6
ag6
ag6
ag6
ag6
ag6
ag6
ag6
ag6
ag6
ag3
ag3
aa(lp20
g3
ag3
ag6
ag6
ag6
ag8
ag13
ag8
ag8
ag13
ag13
ag13
ag13
ag13
ag13
ag11
ag11
ag11
ag13
ag13
ag13
ag8
ag6
ag6
ag6
ag6
ag6
ag6
ag6
ag6
ag6
ag6
ag6
ag6
ag6
ag6
ag6
ag6
ag6
ag6
ag6
ag6
ag6
ag6
ag6
ag6
ag6
ag6
ag3
ag3
aa(lp21
g3
ag3
ag6
ag6
ag6
ag13
ag13
ag13
ag13
ag13
ag13
ag13
ag13
ag13
ag13
ag11
ag11
ag11
ag13
ag13
ag13
ag13
ag6
ag6
ag6
ag6
ag6
ag6
ag6
ag6
ag6
ag6
ag6
ag6
ag6
ag6
ag6
ag6
ag6
ag6
ag6
ag6
ag6
ag6
ag6
ag6
ag6
ag6
ag3
ag3
aa(lp22
g3
ag3
ag6
ag6
ag6
ag13
ag13
ag13
ag13
ag13
ag13
ag13
ag13
ag13
ag13
ag11
ag11
ag11
ag13
ag13
ag13
ag13
ag6
ag6
ag6
ag6
ag6
ag6
ag6
ag6
ag6
ag6
ag6
ag6
ag6
ag6
ag6
ag6
ag6
ag6
ag6
ag6
ag6
ag6
ag6
ag6
ag6
ag6
ag3
ag3
aa(lp23
g3
ag3
ag6
ag6
ag6
ag8
ag8
ag13
ag13
ag13
ag13
ag13
ag13
ag13
ag13
ag13
ag13
ag8
ag13
ag13
ag13
ag13
ag11
ag6
ag6
ag6
ag6
ag6
ag6
ag6
ag6
ag6
ag6
ag6
ag6
ag6
ag6
ag6
ag6
ag6
ag6
ag6
ag6
ag6
ag6
ag6
ag6
ag6
ag3
ag3
aa(lp24
g3
ag3
ag6
ag6
ag6
ag8
ag8
ag8
ag13
ag13
ag8
ag8
ag13
ag13
ag13
ag13
ag8
aS'sols'
p25
ag13
ag13
ag8
ag11
ag8
ag8
ag6
ag6
ag6
ag6
ag6
ag6
ag6
ag6
ag6
ag6
ag6
ag6
ag6
ag6
ag6
ag6
ag6
ag6
ag6
ag6
ag6
ag6
ag6
ag6
ag3
ag3
aa(lp26
g3
ag3
ag6
ag6
ag6
ag8
ag8
ag8
ag8
ag8
ag8
ag8
ag8
ag8
ag8
ag8
ag8
ag8
ag8
ag13
ag8
ag13
ag6
ag8
ag6
ag6
ag6
ag6
ag6
ag6
ag6
ag6
ag6
ag6
ag6
ag6
ag6
ag6
ag6
ag6
ag6
ag6
ag6
ag6
ag6
ag6
ag6
ag6
ag3
ag3
aa(lp27
g3
ag3
ag6
ag6
ag6
ag8
ag8
ag8
ag8
ag8
ag6
ag8
ag6
ag6
ag8
ag8
ag8
ag8
ag6
ag6
ag6
ag6
ag6
ag6
ag6
ag6
ag6
ag6
ag6
ag6
ag6
ag6
ag6
ag6
ag6
ag6
ag6
ag6
ag6
ag6
ag6
ag6
ag6
ag6
ag6
ag6
ag6
ag6
ag3
ag3
aa(lp28
g3
ag3
ag6
ag6
ag6
ag6
ag6
ag6
ag6
ag6
ag6
ag6
ag6
ag6
ag6
ag6
ag6
ag6
ag6
ag6
ag6
ag6
ag6
ag6
ag6
ag6
ag6
ag6
ag6
ag6
ag6
ag6
ag6
ag6
ag6
ag6
ag6
ag6
ag6
ag6
ag6
ag6
ag6
ag6
ag6
ag6
ag6
ag6
ag3
ag3
aa(lp29
g3
ag3
ag6
ag6
ag6
ag6
ag6
ag6
ag6
ag6
ag6
ag6
ag6
ag6
ag8
ag8
ag8
ag8
ag6
ag6
ag6
ag6
ag6
ag6
ag6
ag6
ag6
ag6
ag6
ag6
ag6
ag6
ag6
ag6
ag6
ag6
ag6
ag6
ag6
ag6
ag6
ag6
ag6
ag6
ag6
ag6
ag6
ag6
ag3
ag3
aa(lp30
g3
ag3
ag6
ag6
ag6
ag6
ag6
ag6
ag6
ag6
ag6
ag6
ag6
ag6
ag8
ag8
ag8
ag8
ag6
ag6
ag6
ag6
ag6
ag6
ag6
ag6
ag6
ag6
ag6
ag6
ag6
ag6
ag6
ag6
ag6
ag6
ag6
ag6
ag6
ag6
ag6
ag6
ag6
ag6
ag6
ag6
ag6
ag6
ag3
ag3
aa(lp31
g3
ag3
ag6
ag6
ag6
ag6
ag6
ag6
ag6
ag6
ag6
ag6
ag6
ag6
ag6
ag6
ag6
ag6
ag6
ag6
ag6
ag6
ag6
ag6
ag6
ag6
ag6
ag6
ag6
ag6
ag6
ag6
ag6
ag6
ag6
ag6
ag6
ag6
ag6
ag6
ag6
ag6
ag6
ag6
ag6
ag6
ag6
ag6
ag3
ag3
aa(lp32
g3
ag3
aS'murs'
p33
ag33
ag6
ag6
ag6
ag6
ag6
ag6
ag6
ag6
ag6
ag6
ag6
ag6
ag6
ag6
ag6
ag6
ag6
ag6
aS'sols'
p34
ag6
ag6
ag6
ag6
ag6
aS'trous'
p35
ag6
ag6
ag6
ag6
ag6
ag6
ag6
ag6
ag6
ag6
ag6
ag6
ag6
ag6
ag6
ag6
ag6
ag6
ag6
ag3
ag3
aa(lp36
g3
aS'sols'
p37
ag6
ag6
ag6
ag6
ag6
ag6
ag6
ag6
ag6
ag6
ag6
ag6
ag6
ag6
ag6
ag6
ag6
ag6
ag6
ag6
ag34
ag6
ag6
ag35
ag6
ag35
ag35
ag35
ag6
ag6
ag6
ag6
ag6
ag6
ag6
ag6
ag6
ag6
ag6
ag6
ag6
ag6
ag6
ag6
ag6
ag6
ag3
ag3
aa(lp38
g3
aS'murs'
p39
ag6
aS'murs'
p40
ag6
ag6
ag6
ag6
ag6
ag6
ag6
ag6
ag6
ag6
ag6
ag6
ag6
ag6
ag6
ag6
ag6
ag6
ag34
ag6
ag35
ag35
ag35
ag35
ag35
ag6
ag35
ag35
ag6
ag6
ag6
ag6
ag6
ag6
ag6
ag6
ag6
ag6
ag6
ag6
ag6
ag6
ag6
ag6
ag3
ag3
aa(lp41
g3
ag3
ag33
ag33
ag6
ag6
ag6
ag6
ag6
ag6
ag6
ag6
ag6
ag6
ag6
ag6
ag6
ag6
ag6
ag6
ag6
ag6
ag6
ag6
ag6
ag35
ag35
ag35
ag35
ag35
ag35
ag35
ag6
ag35
ag6
ag6
ag6
ag6
ag6
ag6
ag6
ag6
ag6
ag6
ag6
ag6
ag6
ag6
ag3
ag3
aa(lp42
g3
ag3
ag6
ag6
ag6
ag6
ag6
ag6
ag6
ag6
ag6
ag6
ag6
ag6
ag6
ag6
ag6
ag6
ag6
ag6
ag6
ag6
ag6
ag34
ag35
ag35
ag35
ag35
ag35
ag35
ag35
ag6
ag35
ag35
ag6
ag6
ag35
ag35
ag6
ag6
aS'sols'
p43
ag43
ag43
ag6
ag6
ag6
ag6
ag6
ag3
ag3
aa(lp44
g3
ag3
ag6
ag6
ag6
ag6
ag6
ag6
ag6
ag6
ag6
ag6
ag6
ag6
ag6
ag6
ag6
ag6
ag6
ag6
ag6
ag6
ag6
ag35
ag35
ag35
ag35
ag35
ag35
ag35
ag35
ag35
ag35
ag43
ag35
ag35
ag35
ag35
ag43
ag13
ag43
ag43
ag35
ag13
ag13
ag6
ag6
ag6
ag3
ag3
aa(lp45
g3
ag3
ag6
ag6
ag6
ag6
ag6
ag6
ag6
ag6
ag6
ag6
ag6
ag6
ag6
ag6
ag6
ag6
ag6
ag6
ag6
ag6
ag6
ag34
ag6
ag6
ag35
ag35
ag35
ag35
ag35
ag35
ag35
ag43
ag13
ag35
ag35
ag43
ag43
ag13
ag13
ag13
ag13
ag43
ag13
ag6
ag6
ag6
ag3
ag3
aa(lp46
g3
ag3
ag6
ag6
ag6
ag6
ag6
ag6
ag6
ag6
ag6
ag6
ag6
ag6
ag6
ag6
ag6
ag6
ag6
ag6
ag6
ag6
ag6
ag6
ag35
ag35
ag35
ag35
ag35
ag35
ag35
ag35
ag35
ag13
ag13
ag13
ag13
ag13
ag13
ag43
ag43
ag13
ag43
ag43
ag13
ag6
ag6
ag6
ag3
ag3
aa(lp47
g3
ag3
ag6
ag6
ag6
ag6
ag6
ag6
ag6
ag6
ag6
ag6
ag6
ag6
ag6
ag6
ag6
ag6
ag6
ag6
ag6
ag6
ag6
ag6
ag35
ag34
ag34
ag35
ag34
ag35
ag35
ag13
ag13
ag13
ag13
ag13
ag13
ag13
ag13
ag13
ag13
ag13
ag43
ag43
ag43
ag6
ag6
ag6
ag3
ag3
aa(lp48
g3
ag3
ag6
ag6
ag6
ag6
ag6
ag6
ag6
ag6
ag6
ag6
ag6
ag6
ag6
ag6
ag6
ag6
ag6
ag6
ag6
ag6
ag6
ag6
ag6
ag34
ag34
ag35
ag34
ag34
ag35
ag13
ag13
ag13
ag13
ag13
ag13
ag35
ag13
ag13
ag13
ag43
ag43
ag43
ag43
ag6
ag6
ag6
ag3
ag3
aa(lp49
g3
ag3
ag6
ag6
ag6
ag6
ag6
ag6
ag6
ag6
ag6
ag6
ag6
ag6
ag6
ag6
ag6
ag6
ag6
ag6
ag6
ag6
ag6
ag6
ag6
ag6
ag6
ag43
ag43
ag43
ag34
ag34
ag13
ag13
ag13
ag13
ag13
ag13
ag35
ag35
ag13
ag13
ag13
ag13
ag13
ag6
ag6
ag6
ag3
ag3
aa(lp50
g3
ag3
ag6
ag6
ag6
ag6
ag6
ag6
ag6
ag6
ag6
ag6
ag6
ag6
ag6
ag6
ag6
ag6
ag6
ag6
ag6
ag6
ag6
ag6
ag6
ag6
ag6
ag43
ag43
ag43
ag43
ag13
ag13
ag13
ag13
ag13
ag13
ag13
ag35
ag35
ag13
ag13
ag13
ag43
ag43
ag43
ag43
ag6
ag3
ag3
aa(lp51
g3
ag3
ag6
ag6
ag6
ag6
ag6
ag6
ag6
ag6
ag6
ag6
ag6
ag6
ag6
ag6
ag6
ag6
ag6
ag6
ag6
ag6
ag6
ag6
ag6
ag6
ag6
ag43
ag43
ag13
ag13
ag13
ag13
ag13
ag13
ag13
ag13
ag13
ag35
ag35
ag13
ag43
ag43
ag43
ag13
ag6
ag6
ag6
ag3
ag3
aa(lp52
g3
ag3
ag6
ag6
ag6
ag6
ag6
ag6
ag6
ag6
ag6
ag6
ag6
ag6
ag6
ag6
ag6
ag6
ag6
ag6
ag6
ag6
ag6
ag6
ag6
ag6
ag43
ag6
ag13
ag13
ag13
ag13
ag35
ag35
ag35
ag13
ag13
ag13
ag13
ag13
ag34
ag43
ag43
ag43
ag43
ag6
ag6
ag6
ag3
ag3
aa(lp53
g3
ag3
ag6
ag6
ag6
ag6
ag6
ag6
ag6
ag6
ag6
ag6
ag6
ag6
ag6
ag6
ag6
ag6
ag6
ag6
ag6
ag6
ag6
ag6
ag6
ag6
ag6
ag6
ag43
ag43
ag43
ag13
ag35
ag35
ag35
ag13
ag13
ag13
ag13
ag13
ag34
ag43
ag43
ag43
ag43
ag43
ag43
ag6
ag3
ag3
aa(lp54
g3
ag3
ag6
ag6
ag6
ag6
ag6
ag6
ag6
ag6
ag6
ag6
ag6
ag6
ag6
ag6
ag6
ag6
ag6
ag6
ag6
ag6
ag6
ag6
ag6
ag6
ag6
ag6
ag43
ag43
ag13
ag13
ag35
ag35
ag35
ag13
ag35
ag35
ag13
ag13
ag13
ag43
ag13
ag13
ag13
ag43
ag43
ag6
ag3
ag3
aa(lp55
g3
ag3
ag6
ag6
ag6
ag6
ag6
ag6
ag6
ag6
ag6
ag6
ag6
ag6
ag6
ag6
ag6
ag6
ag6
ag6
ag6
ag6
ag6
ag6
ag6
ag6
ag6
ag6
ag43
ag43
ag13
ag13
ag35
ag35
ag35
ag13
ag35
ag35
ag13
ag13
ag13
ag43
ag13
ag13
ag43
ag43
ag6
ag6
ag3
ag3
aa(lp56
g3
ag3
ag6
ag6
ag6
ag6
ag6
ag6
ag6
ag6
ag6
ag6
ag6
ag6
ag6
ag6
ag6
ag6
ag6
ag6
ag6
ag6
ag6
ag6
ag6
ag6
ag6
ag6
ag13
ag13
ag13
ag13
ag35
ag35
ag35
ag13
ag35
ag35
ag35
ag35
ag35
ag43
ag13
ag43
ag43
ag43
ag6
ag6
ag3
ag3
aa(lp57
g3
ag3
ag6
ag6
ag6
ag6
ag6
ag6
ag6
ag6
ag6
ag6
ag6
ag6
ag6
ag6
ag6
ag6
ag6
ag6
ag6
ag6
ag6
ag6
ag6
ag6
ag6
ag43
ag43
ag43
ag43
ag13
ag13
ag13
ag13
ag13
ag13
ag43
ag43
ag43
ag35
ag43
ag43
ag13
ag43
ag43
ag6
ag6
ag3
ag3
aa(lp58
g3
ag3
ag6
ag6
ag6
ag6
ag6
ag6
ag6
ag6
ag6
ag6
ag6
ag6
ag6
ag6
ag6
ag6
ag6
ag6
ag6
ag6
ag6
ag6
ag6
ag6
ag6
ag6
ag43
ag43
ag43
ag43
ag13
ag43
ag43
ag13
ag13
ag43
ag43
ag43
ag43
ag43
ag13
ag13
ag13
ag6
ag6
ag6
ag3
ag3
aa(lp59
g3
ag3
ag6
ag6
ag6
ag6
ag6
ag6
ag6
ag6
ag6
ag6
ag6
ag6
ag6
ag6
ag6
ag6
ag6
ag6
ag6
ag6
ag6
ag6
ag6
ag6
ag6
ag6
ag43
ag43
ag43
ag43
ag43
ag43
ag43
ag43
ag43
ag13
ag43
ag43
ag43
ag43
ag43
aS'trous'
p60
ag13
ag60
ag6
ag6
ag3
ag3
aa(lp61
g3
ag3
ag6
ag6
ag6
ag6
ag6
ag6
ag6
ag6
ag6
ag6
ag6
ag6
ag6
ag6
ag6
ag6
ag6
ag6
ag6
ag6
ag6
ag6
ag6
ag6
ag6
ag6
ag43
ag43
ag43
ag43
ag6
ag6
ag43
ag6
ag6
ag6
ag43
ag43
ag43
ag43
ag43
ag6
ag43
ag6
ag6
ag6
ag3
ag3
aa(lp62
g3
ag3
ag6
ag6
ag6
ag6
ag6
ag6
ag6
ag6
ag6
ag6
ag6
ag6
ag6
ag6
ag6
ag6
ag6
ag6
ag6
ag6
ag6
ag6
ag6
ag6
ag6
ag6
ag43
ag43
ag6
ag6
ag6
ag43
ag6
ag6
ag6
ag6
ag6
ag6
ag6
ag6
ag6
ag6
ag6
ag6
ag6
ag6
ag3
ag3
aa(lp63
g3
ag3
ag6
ag6
ag6
ag6
ag6
ag6
ag6
ag6
ag6
ag6
ag6
ag6
ag6
ag6
ag6
ag6
ag6
ag6
ag6
ag6
ag6
ag6
ag6
ag6
ag6
ag6
ag6
ag6
ag6
ag6
ag6
ag6
ag6
ag6
ag6
ag6
ag6
ag6
ag6
ag6
ag6
ag6
ag6
ag6
ag6
ag6
ag3
ag3
aa(lp64
g3
ag3
ag6
ag6
ag6
ag6
ag6
ag6
ag6
ag6
ag6
ag6
ag6
ag6
ag6
ag6
ag6
ag6
ag6
ag6
ag6
ag6
ag6
ag6
ag6
ag6
ag6
ag6
ag6
ag6
ag6
ag6
ag6
ag6
ag6
ag6
ag6
ag6
ag6
ag6
ag6
ag6
ag6
ag6
ag6
ag6
ag6
ag6
ag3
ag3
aa(lp65
g3
ag3
ag3
ag3
ag3
ag3
ag3
ag3
ag3
ag3
ag3
ag3
ag3
ag3
ag3
ag3
ag3
ag3
ag3
ag3
ag3
ag3
ag3
ag3
ag3
ag3
ag3
ag3
ag3
ag3
ag3
ag3
ag3
ag3
ag3
ag3
ag3
ag3
ag3
ag3
ag3
ag3
ag3
ag3
ag3
ag3
ag3
ag3
ag3
ag3
aa(lp66
g3
ag3
ag3
ag3
ag3
ag3
ag3
ag3
ag3
ag3
ag3
ag3
ag3
ag3
ag3
ag3
ag3
ag3
ag3
ag3
ag3
ag3
ag3
ag3
ag3
ag3
ag3
ag3
ag3
ag3
ag3
ag3
ag3
ag3
ag3
ag3
ag3
ag3
ag3
ag3
ag3
ag3
ag3
ag3
ag3
ag3
ag3
ag3
ag3
ag3
aaa(lp67
(lp68
S''
p69
ag69
ag69
ag69
ag69
ag69
ag69
ag69
ag69
ag69
ag69
ag69
ag69
ag69
ag69
ag69
ag69
ag69
ag69
ag69
ag69
ag69
ag69
ag69
ag69
ag69
ag69
ag69
ag69
ag69
ag69
ag69
ag69
ag69
ag69
ag69
ag69
ag69
ag69
ag69
ag69
ag69
ag69
ag69
ag69
ag69
ag69
ag69
ag69
ag69
aa(lp70
g69
ag69
ag69
ag69
ag69
ag69
ag69
ag69
ag69
ag69
ag69
ag69
ag69
ag69
ag69
ag69
ag69
ag69
ag69
ag69
ag69
ag69
ag69
ag69
ag69
ag69
ag69
ag69
ag69
ag69
ag69
ag69
ag69
ag69
ag69
ag69
ag69
ag69
ag69
ag69
ag69
ag69
ag69
ag69
ag69
ag69
ag69
ag69
ag69
ag69
aa(lp71
g69
ag69
ag69
ag69
aS'Stalagmites'
p72
ag72
ag69
ag69
ag69
ag69
ag69
ag69
ag69
aS'Stalagmites'
p73
ag69
ag69
ag69
ag69
ag69
ag69
ag69
ag69
ag69
ag69
ag69
ag69
ag69
ag73
ag69
ag69
ag69
ag69
ag69
ag69
ag69
ag69
ag69
ag69
ag69
ag69
ag69
ag69
ag69
ag69
ag73
ag69
ag69
ag69
ag69
ag69
aa(lp74
g69
ag69
ag72
ag69
ag69
ag69
ag69
ag69
ag73
ag69
ag73
ag69
ag69
ag69
ag69
ag69
ag69
ag69
ag69
ag69
ag69
ag69
ag69
ag69
ag69
ag69
ag73
ag73
ag73
ag69
ag69
ag69
ag73
ag73
ag69
ag73
aS'Stalagmites'
p75
ag69
ag75
ag69
ag69
ag69
ag73
ag69
ag69
ag69
ag69
ag69
ag69
ag69
aa(lp76
g69
ag69
ag69
ag73
ag69
ag69
ag69
ag69
ag69
ag69
ag69
ag73
ag69
ag73
ag69
ag69
ag69
ag69
ag69
ag69
ag69
ag69
ag73
ag73
ag69
ag69
ag73
ag73
ag73
ag69
ag69
ag69
ag69
ag69
ag73
ag73
ag69
ag69
ag69
ag69
ag73
ag69
ag69
ag69
ag72
ag69
ag69
ag69
ag69
ag69
aa(lp77
g69
ag69
ag69
ag73
ag69
ag69
ag69
ag69
ag69
ag69
ag73
ag73
ag69
ag69
ag73
ag69
ag69
ag69
ag69
ag69
ag69
ag69
ag69
ag69
ag69
ag69
ag69
ag69
ag69
ag73
ag69
ag69
ag73
ag73
ag69
ag73
ag69
ag73
ag73
ag69
ag73
ag69
ag69
ag69
ag69
ag69
ag73
ag69
ag69
ag69
aa(lp78
g69
ag69
ag69
ag69
ag69
ag69
ag69
ag69
ag69
ag69
ag69
ag69
ag69
ag69
ag69
ag69
ag69
ag69
ag69
ag69
ag69
ag69
ag69
ag69
ag69
ag73
ag73
ag73
ag69
ag69
ag69
ag69
ag69
ag69
ag69
ag73
ag69
ag73
ag69
ag69
ag69
ag69
ag69
ag69
ag69
ag69
ag73
ag69
ag69
ag69
aa(lp79
g69
ag69
ag69
ag73
ag69
ag69
ag69
ag69
ag69
ag69
ag69
ag69
ag69
ag69
ag69
ag69
ag69
ag69
ag69
ag69
ag69
ag69
ag69
ag69
ag69
ag73
ag73
ag73
ag69
ag73
ag69
ag69
ag69
ag73
ag69
ag69
ag69
ag72
ag69
ag69
ag69
ag73
ag73
ag69
ag69
ag73
ag73
ag69
ag69
ag69
aa(lp80
g69
ag69
ag69
ag69
ag73
ag73
ag69
ag69
ag69
ag69
ag69
ag69
ag69
ag69
ag69
ag69
ag69
ag69
ag75
ag69
ag69
ag69
ag75
ag69
ag69
ag69
ag73
ag73
ag73
ag69
ag73
ag73
ag73
ag73
ag69
ag69
ag69
ag72
ag69
ag69
ag69
ag73
ag73
ag69
ag69
ag73
ag69
ag69
ag69
ag69
aa(lp81
g69
ag69
ag73
ag69
ag73
ag73
ag69
ag69
ag69
ag69
ag69
ag69
ag69
ag69
ag69
ag69
ag69
ag69
ag69
ag69
ag69
ag69
ag69
ag69
ag69
ag69
ag69
ag69
ag69
ag69
ag69
ag69
ag73
ag73
ag69
ag69
ag69
ag69
ag69
ag69
ag69
ag69
ag69
ag69
ag69
ag73
ag73
ag69
ag69
ag69
aa(lp82
g69
ag69
ag69
ag69
ag69
ag69
ag69
ag69
ag69
ag69
ag69
ag69
ag69
ag69
ag69
ag69
ag69
ag69
ag69
ag69
ag69
ag69
ag69
ag69
ag73
ag69
ag69
ag69
ag69
ag75
ag69
ag69
ag69
ag69
ag69
ag73
ag69
ag73
ag69
ag73
ag73
ag69
ag69
ag69
ag69
ag69
ag69
ag69
ag69
ag69
aa(lp83
g69
ag69
ag69
ag69
ag69
ag69
ag69
ag69
ag69
ag69
ag69
ag69
ag69
ag69
ag69
ag69
ag69
ag69
ag69
ag69
ag69
ag69
ag69
ag69
ag69
ag69
ag73
ag69
ag69
ag69
ag75
ag75
ag69
ag73
ag69
ag73
ag69
ag69
ag69
ag69
ag69
ag69
ag69
ag69
ag69
ag69
ag69
ag69
ag69
ag69
aa(lp84
g69
ag69
ag73
ag73
ag73
ag69
ag69
ag69
ag69
ag69
ag69
ag69
ag69
ag69
ag69
ag69
ag69
ag69
ag69
ag69
ag69
ag69
ag69
ag69
ag69
ag69
ag69
ag69
ag73
ag73
ag69
ag69
ag69
ag73
ag69
ag73
ag69
ag69
ag73
ag69
ag73
ag69
ag69
ag73
ag73
ag73
ag73
ag69
ag69
ag69
aa(lp85
g69
ag69
ag73
ag73
ag73
ag69
ag69
ag69
ag69
ag69
ag69
ag69
ag69
ag69
ag69
ag69
ag69
ag69
ag69
ag69
ag69
ag69
ag69
ag73
ag69
ag73
ag69
ag69
ag73
ag73
ag69
ag69
ag69
ag73
ag73
ag73
ag69
ag69
ag69
ag69
ag73
ag69
ag69
ag69
ag73
ag73
ag73
ag69
ag69
ag69
aa(lp86
g69
ag69
ag69
ag69
ag69
ag69
ag69
ag69
ag69
ag69
ag69
ag69
ag69
ag69
ag69
ag69
ag69
ag69
ag69
ag69
ag69
ag69
ag69
ag69
ag69
ag73
ag69
ag73
ag73
ag73
ag69
ag69
ag69
ag73
ag73
ag73
ag69
ag69
ag69
ag73
ag73
ag69
ag69
ag73
ag73
ag69
ag69
ag69
ag69
ag69
aa(lp87
g69
ag69
ag69
ag73
ag69
ag69
ag69
ag69
ag69
ag69
ag69
ag69
ag69
ag69
ag69
ag69
ag69
ag69
ag69
ag69
ag69
ag69
ag69
ag69
ag73
ag73
ag69
ag69
ag69
ag69
ag69
ag73
ag73
ag69
ag69
ag69
ag73
ag69
ag73
ag73
ag73
ag69
ag69
ag73
ag73
ag69
ag69
ag69
ag69
ag69
aa(lp88
g69
ag69
ag69
ag69
ag69
ag69
ag69
ag72
ag69
ag69
ag69
ag69
ag69
ag69
ag69
ag69
ag69
ag69
ag69
ag69
ag69
ag69
ag69
ag73
ag73
ag69
ag69
ag69
ag69
ag69
ag69
ag69
ag69
ag69
ag69
ag69
ag73
ag69
ag69
ag69
ag73
ag69
ag69
ag69
ag69
ag69
ag69
ag69
ag69
ag69
aa(lp89
g69
ag69
ag69
ag69
ag73
ag73
ag69
ag69
ag69
ag69
ag69
ag69
ag69
ag69
ag69
ag69
ag69
ag69
ag69
ag69
ag69
ag69
ag69
ag69
ag73
ag73
ag73
ag73
ag69
ag69
ag69
ag73
ag69
ag69
ag69
ag69
ag69
ag69
ag69
ag69
ag69
ag69
ag69
ag69
ag72
ag69
ag72
ag69
ag69
ag69
aa(lp90
g69
ag69
ag69
ag73
ag69
ag69
ag69
ag69
ag69
ag69
ag73
ag69
ag69
ag73
ag73
ag69
ag69
ag69
ag69
ag73
ag73
ag69
ag73
ag73
ag73
ag69
ag69
ag69
ag69
ag73
ag69
ag69
ag69
ag69
ag69
ag69
ag73
ag69
ag73
ag69
ag73
ag73
ag73
ag69
ag72
ag69
ag69
ag69
ag69
ag69
aa(lp91
g69
ag69
ag69
ag69
ag69
ag73
ag69
ag72
ag69
ag69
ag73
ag69
ag69
ag69
ag69
ag69
ag69
ag69
ag69
ag73
ag73
ag69
ag69
ag69
ag69
ag69
ag73
ag73
ag73
ag73
ag69
ag73
ag73
ag69
ag73
ag69
ag73
ag73
ag73
ag73
ag73
ag73
ag69
ag69
ag69
ag69
ag69
ag69
ag69
ag69
aa(lp92
g69
ag69
ag69
ag69
ag69
ag73
ag69
ag72
ag69
ag69
ag73
ag69
ag73
ag69
ag73
ag69
ag69
ag69
ag73
ag69
ag69
ag69
ag69
ag69
ag69
ag69
ag72
ag69
ag69
ag69
ag69
ag73
ag73
ag69
ag73
ag73
ag73
ag69
ag73
ag69
ag69
ag73
ag69
ag73
ag69
ag73
ag69
ag69
ag69
ag69
aa(lp93
g69
ag69
ag73
ag69
ag69
ag73
ag69
ag69
ag69
ag69
ag69
ag73
ag69
ag69
ag73
ag69
ag69
ag69
ag73
ag69
ag69
ag73
ag69
ag73
ag69
ag69
ag69
ag72
ag72
ag69
ag69
ag69
ag73
ag69
ag69
ag73
ag73
ag69
ag69
ag69
ag69
ag69
ag73
ag69
ag69
ag73
ag69
ag69
ag69
ag69
aa(lp94
g69
ag69
ag73
ag69
ag69
ag73
ag72
ag69
ag69
ag73
ag73
ag73
ag69
ag69
ag73
ag69
ag73
ag73
ag69
ag69
ag69
ag73
ag69
ag73
ag69
ag69
ag69
ag72
ag72
ag69
ag69
ag69
ag69
ag69
ag73
ag69
ag69
ag69
ag69
ag69
ag69
ag73
ag73
ag73
ag69
ag69
ag69
ag72
ag69
ag69
aa(lp95
g69
ag69
ag69
ag69
ag69
ag73
ag72
ag72
ag69
ag73
ag73
ag73
ag69
ag69
ag69
ag69
ag73
ag73
ag73
ag69
ag69
ag72
ag69
ag73
ag69
ag69
ag69
ag69
ag69
ag69
ag69
ag69
ag69
ag69
ag73
ag69
ag72
ag72
ag69
ag69
ag69
ag69
ag73
ag73
ag73
ag69
ag69
ag69
ag69
ag69
aa(lp96
g69
aS'porte'
p97
ag69
aS'ennemi'
p98
ag69
ag73
ag69
ag69
ag69
ag69
ag69
ag69
ag69
ag69
ag69
ag69
ag69
ag69
ag69
ag69
ag69
ag69
ag69
ag69
ag69
ag69
ag69
ag69
ag69
ag69
ag69
ag72
ag69
ag69
ag69
ag69
ag69
ag69
ag69
ag69
ag69
ag73
ag69
ag69
ag69
ag69
ag73
ag69
ag69
ag69
aa(lp99
g69
ag69
aS'coffre'
p100
ag69
ag69
ag73
ag73
ag73
ag73
ag69
ag73
ag73
ag73
ag69
ag73
ag73
ag73
ag73
ag73
ag69
ag72
ag72
ag69
ag72
ag69
ag69
ag69
ag69
ag69
ag69
ag69
ag69
ag69
ag69
ag69
ag69
ag69
ag69
ag72
ag69
ag69
ag69
ag69
ag69
ag69
ag69
ag69
ag69
ag69
ag69
aa(lp101
g69
ag69
ag69
ag69
ag73
ag73
ag69
ag73
ag69
ag69
ag69
ag73
ag73
ag69
ag73
ag69
ag69
ag73
ag73
ag69
ag69
ag69
ag72
ag69
ag69
ag69
ag69
ag69
ag69
ag69
ag69
ag69
ag69
ag69
ag69
ag69
ag69
ag69
ag72
ag69
ag72
ag69
ag72
ag69
ag69
ag69
ag73
ag69
ag69
ag69
aa(lp102
g69
ag69
ag69
ag73
ag73
ag73
ag73
ag73
ag73
ag69
ag73
ag69
ag69
ag69
ag73
ag73
ag69
ag69
ag69
ag69
ag69
ag69
ag72
ag69
ag69
ag69
ag69
ag69
ag69
ag69
ag69
ag69
ag69
ag69
ag69
ag69
ag69
ag69
ag69
ag69
ag69
ag69
ag69
ag69
ag69
ag69
ag73
ag69
ag69
ag69
aa(lp103
g69
ag69
ag69
ag73
ag73
ag73
ag69
ag69
ag69
ag69
ag69
ag69
ag69
ag69
ag69
ag69
ag72
ag69
ag69
ag72
ag69
ag69
ag69
ag69
ag69
ag69
ag69
ag69
ag69
ag69
ag69
ag69
ag69
ag69
ag69
ag69
ag69
ag69
ag69
ag69
ag69
ag69
ag69
ag69
ag69
ag69
ag69
ag69
ag69
ag69
aa(lp104
g69
ag69
ag69
ag69
ag72
ag73
ag72
ag69
ag69
ag69
ag69
ag69
ag69
ag69
ag69
ag69
ag72
ag69
ag69
ag72
ag69
ag69
ag69
ag72
ag69
ag69
ag69
ag69
ag69
ag69
ag69
ag69
ag69
ag69
ag69
ag69
ag69
ag69
ag69
ag69
ag69
ag69
ag69
ag69
ag69
ag69
ag69
ag69
ag69
ag69
aa(lp105
g69
ag69
ag69
ag69
ag69
ag73
ag69
ag69
ag73
ag73
ag73
ag69
ag73
ag73
ag73
ag73
ag72
ag69
ag69
ag69
ag69
ag69
ag69
ag69
ag69
ag69
ag69
ag69
ag69
ag69
ag69
ag69
ag69
ag69
ag69
ag69
ag69
ag69
ag69
ag69
ag69
ag69
ag69
ag69
ag69
ag69
ag69
ag69
ag69
ag69
aa(lp106
g69
ag69
ag69
ag69
ag72
ag73
ag69
ag69
ag73
ag73
ag73
ag73
ag73
ag73
ag69
ag73
ag69
ag69
ag69
ag69
ag69
ag69
ag69
ag69
ag69
ag69
ag69
ag69
ag69
ag69
ag69
ag69
ag69
ag69
ag69
ag69
ag69
ag69
ag69
ag69
ag69
ag69
ag69
ag69
ag69
ag69
ag69
ag73
ag69
ag69
aa(lp107
g69
ag69
ag69
ag69
ag69
ag73
ag69
ag69
ag69
ag69
ag69
ag69
ag69
ag69
ag69
ag69
ag69
ag69
ag69
ag73
ag73
ag73
ag69
ag73
ag69
ag69
ag69
ag69
ag69
ag69
ag69
ag69
ag69
ag69
ag69
ag69
ag69
ag69
ag69
ag69
ag69
ag69
ag69
ag69
ag69
ag69
ag69
ag69
ag69
ag69
aa(lp108
g69
ag69
ag69
ag69
ag69
ag69
ag69
ag69
ag69
ag69
ag69
ag69
ag73
ag69
ag72
ag69
ag69
ag69
ag72
ag73
ag73
ag69
ag73
ag73
ag69
ag69
ag69
ag69
ag69
ag72
ag69
ag69
ag69
ag69
ag69
ag69
ag69
ag69
ag69
ag69
ag69
ag69
ag69
ag69
ag69
ag73
ag69
ag69
ag69
ag69
aa(lp109
g69
ag69
ag69
ag69
ag73
ag69
ag73
ag73
ag69
ag73
ag69
ag69
ag73
ag69
ag69
ag69
ag72
ag72
ag69
ag69
ag69
ag69
ag72
ag69
ag69
ag69
ag72
ag69
ag69
ag72
ag69
ag69
ag69
ag69
ag69
ag69
ag69
ag69
ag69
ag69
ag69
ag69
ag69
ag69
ag69
ag73
ag69
ag75
ag69
ag69
aa(lp110
g69
ag69
ag73
ag69
ag73
ag69
ag69
ag73
ag73
ag73
ag73
ag69
ag73
ag69
ag69
ag69
ag69
ag69
ag69
ag69
ag69
ag69
ag69
ag69
ag69
ag69
ag69
ag69
ag69
ag69
ag69
ag69
ag69
ag69
ag69
ag69
ag69
ag69
ag69
ag69
ag69
ag69
ag75
ag69
ag69
ag73
ag69
ag69
ag69
ag69
aa(lp111
g69
ag69
ag73
ag69
ag73
ag73
ag73
ag73
ag69
ag69
ag73
ag73
ag73
ag69
ag73
ag73
ag69
ag69
ag73
ag73
ag73
ag69
ag69
ag69
ag69
ag69
ag69
ag69
ag69
ag69
ag69
ag69
ag69
ag69
ag69
ag69
ag69
ag69
ag69
ag69
ag69
ag75
ag75
ag69
ag69
ag69
ag69
ag69
ag69
ag69
aa(lp112
g69
ag69
ag69
ag73
ag73
ag69
ag69
ag69
ag69
ag69
ag73
ag73
ag73
ag69
ag73
ag69
ag73
ag73
ag69
ag69
ag69
ag69
ag69
ag69
ag72
ag69
ag69
ag69
ag69
ag69
ag69
ag69
ag69
ag69
ag69
ag69
ag69
ag69
ag69
ag69
ag69
ag69
ag69
ag69
ag69
ag69
ag75
ag69
ag69
ag69
aa(lp113
g69
ag69
ag69
ag73
ag73
ag73
ag69
ag69
ag69
ag69
ag69
ag69
ag69
ag73
ag69
ag73
ag69
ag73
ag73
ag73
ag69
ag69
ag73
ag73
ag73
ag73
ag73
ag69
ag69
ag69
ag69
ag69
ag69
ag69
ag69
ag69
ag69
ag69
ag69
ag69
ag69
ag69
ag69
ag69
ag69
ag69
ag75
ag69
ag69
ag69
aa(lp114
g69
ag69
ag69
ag69
ag69
ag69
ag69
ag73
ag73
ag73
ag69
ag69
ag69
ag73
ag73
ag73
ag69
ag69
ag73
ag73
ag73
ag69
ag69
ag69
ag69
ag69
ag69
ag69
ag72
ag69
ag69
ag69
ag69
ag69
ag69
ag69
ag69
ag69
ag69
ag69
ag69
ag69
ag69
ag69
ag69
ag69
ag73
ag69
ag69
ag69
aa(lp115
g69
ag69
ag69
ag73
ag69
ag69
ag69
ag73
ag73
ag73
ag73
ag73
ag69
ag73
ag73
ag73
ag69
ag69
ag69
ag69
ag69
ag69
ag69
ag73
ag69
ag69
ag69
ag69
ag69
ag69
ag69
ag69
ag69
ag69
ag69
ag69
ag69
ag69
ag69
ag69
ag69
ag69
ag69
ag69
ag69
ag69
ag69
ag69
ag69
ag69
aa(lp116
g69
ag69
ag69
ag69
ag69
ag69
ag73
ag73
ag73
ag69
ag69
ag69
ag69
ag69
ag69
ag73
ag75
ag69
ag69
ag75
ag75
ag69
ag69
ag73
ag69
ag72
ag69
ag69
ag69
ag69
ag69
ag69
ag69
ag69
ag69
ag69
ag69
ag69
ag75
ag69
ag69
ag69
ag69
ag69
ag69
ag69
ag69
ag69
ag69
ag69
aa(lp117
g69
ag69
ag69
ag69
ag69
ag73
ag73
ag69
ag69
ag73
ag73
ag73
ag69
ag69
ag69
ag73
ag69
ag69
ag69
ag69
ag69
ag69
ag69
ag69
ag69
ag69
ag69
ag72
ag72
ag72
ag69
ag69
ag69
ag69
ag69
ag69
ag69
ag69
ag75
ag69
ag69
ag69
ag69
ag69
ag69
ag69
ag69
ag75
ag69
ag69
aa(lp118
g69
ag69
ag69
ag69
ag69
ag69
ag73
ag69
ag69
ag69
ag69
ag69
ag73
ag73
ag69
ag69
ag69
ag69
ag69
ag73
ag69
ag69
ag69
ag73
ag69
ag69
ag69
ag69
ag69
ag69
ag69
ag69
ag69
ag69
ag69
ag69
ag69
ag69
ag69
ag69
ag69
ag69
ag69
ag69
ag69
ag69
ag69
ag69
ag69
ag69
aa(lp119
g69
ag69
ag73
ag73
ag69
ag73
ag73
ag69
ag69
ag69
ag69
ag73
ag69
ag69
ag69
ag69
ag73
ag73
ag69
ag73
ag69
ag69
ag69
ag73
ag69
ag72
ag69
ag69
ag69
ag69
ag69
ag73
ag73
ag73
ag69
ag73
ag73
ag69
ag69
ag69
ag69
ag69
ag69
ag69
ag69
ag69
ag69
ag69
ag69
ag69
aa(lp120
g69
ag69
ag73
ag69
ag69
ag69
ag73
ag69
ag69
ag69
ag69
ag73
ag69
ag69
ag69
ag69
ag69
ag73
ag69
ag73
ag73
ag73
ag73
ag73
ag69
ag69
ag73
ag73
ag73
ag69
ag69
ag73
ag69
ag69
ag69
ag69
ag69
ag73
ag69
ag69
ag69
ag73
ag73
ag73
ag69
ag69
ag69
ag69
ag69
ag69
aa(lp121
g69
ag69
ag73
ag73
ag69
ag69
ag69
ag69
ag69
ag69
ag69
ag69
ag69
ag69
ag69
ag69
ag69
ag69
ag73
ag73
ag69
ag69
ag69
ag69
ag69
ag69
ag69
ag69
ag69
ag69
ag73
ag73
ag73
ag69
ag69
ag69
ag69
ag73
ag69
ag69
ag75
ag69
ag69
ag69
ag69
ag69
ag69
ag73
ag69
ag69
aa(lp122
g69
ag69
ag69
ag73
ag69
ag69
ag69
ag69
ag69
ag69
ag69
ag73
ag73
ag73
ag69
ag69
ag73
ag73
ag69
ag73
ag69
ag69
ag69
ag69
ag69
ag69
ag69
ag69
ag69
ag69
ag69
ag69
ag69
ag69
ag69
ag69
ag69
ag69
ag69
ag69
ag69
ag69
ag69
ag69
ag69
ag69
ag69
ag69
ag69
ag69
aa(lp123
g69
ag69
ag69
ag69
ag69
ag69
ag69
ag69
ag69
ag69
ag69
ag69
ag69
ag69
ag69
ag69
ag69
ag69
ag69
ag69
ag69
ag69
ag69
ag69
ag69
ag69
ag69
ag69
ag69
ag69
ag69
ag69
ag69
ag69
ag69
ag69
ag69
ag69
ag69
ag69
ag69
ag69
ag69
ag69
ag69
ag69
ag69
ag69
ag69
ag69
aa(lp124
g69
ag69
ag69
ag69
ag69
ag69
ag69
ag69
ag69
ag69
ag69
ag69
ag69
ag69
ag69
ag69
ag69
ag69
ag69
ag69
ag69
ag69
ag69
ag69
ag69
ag69
ag69
ag69
ag69
ag69
ag69
ag69
ag69
ag69
ag69
ag69
ag69
ag69
ag69
ag69
ag69
ag69
ag69
ag69
ag69
ag69
ag69
ag69
ag69
ag69
aaa.