(lp0
(lp1
(lp2
S'mur'
p3
ag3
ag3
ag3
ag3
aS'herbe'
p4
ag4
ag4
ag4
ag4
ag4
ag4
ag4
ag4
ag4
ag4
ag4
ag4
ag4
ag4
ag4
ag4
ag4
ag4
ag4
ag4
ag4
ag4
ag4
ag4
ag4
ag4
ag4
ag4
ag4
ag4
ag4
ag4
ag4
ag4
ag4
ag4
ag4
ag4
ag4
ag4
ag4
aS'herbe'
p5
ag5
ag5
aa(lp6
g3
aS'herbe'
p7
aS'herbe'
p8
aS'mur'
p9
ag9
ag4
ag4
ag4
ag4
ag4
ag4
ag4
ag4
ag4
ag4
ag4
ag4
ag4
ag4
ag4
ag4
ag4
ag4
ag4
ag4
ag4
ag4
ag4
ag4
ag4
ag4
ag4
ag4
ag4
ag4
ag4
ag4
ag4
ag4
ag4
ag4
ag4
ag4
ag4
ag4
ag4
ag4
ag4
ag4
ag4
aa(lp10
g3
ag8
ag4
aS'herbe'
p11
aS'mur'
p12
ag4
ag4
ag4
ag4
ag4
ag4
ag4
ag4
ag4
ag4
ag4
ag4
ag4
ag4
ag4
ag4
ag4
ag4
ag4
ag4
ag4
ag4
ag4
ag4
ag4
ag4
ag4
ag4
ag4
ag4
ag4
ag4
ag4
ag4
ag4
ag4
ag4
ag4
ag4
ag4
ag4
ag4
ag4
ag4
ag4
aa(lp13
g3
aS'mur'
p14
ag11
ag11
ag4
ag4
ag4
ag4
ag4
ag4
ag4
ag4
ag4
ag4
ag4
ag4
ag4
ag4
ag4
ag4
ag4
ag4
ag4
ag4
ag4
ag4
ag4
ag4
ag4
ag4
ag4
ag4
ag4
ag4
ag4
ag4
ag4
ag4
ag4
ag4
ag4
ag4
ag4
ag4
ag4
ag4
ag4
ag4
ag4
ag4
aa(lp15
g3
ag14
ag12
ag4
ag4
ag4
ag4
ag4
ag4
ag4
ag4
ag4
ag4
ag4
ag4
ag4
ag4
ag4
ag4
ag4
ag4
ag4
ag4
ag4
ag4
ag4
ag4
ag4
ag4
ag4
ag4
ag4
ag4
ag4
ag4
ag4
ag4
ag4
ag4
ag4
ag4
ag4
ag4
ag4
ag4
ag4
ag4
ag4
ag4
ag4
aa(lp16
g4
aS'herbe'
p17
ag4
ag4
ag4
ag4
ag4
ag4
ag4
ag4
ag4
ag4
ag4
ag4
ag4
ag4
ag4
ag4
ag4
ag4
ag4
ag4
ag4
ag4
ag4
ag4
ag4
ag4
ag4
ag4
ag4
ag4
ag4
ag4
ag4
ag4
ag4
ag4
ag4
ag4
ag4
ag4
ag4
ag4
ag4
ag4
ag4
ag4
ag4
ag4
aa(lp18
g4
ag4
ag4
ag4
ag4
ag4
ag4
ag4
ag4
ag4
ag4
ag4
ag4
ag4
ag4
ag4
ag4
ag4
ag4
ag4
ag4
ag4
ag4
ag4
ag4
ag4
ag4
ag4
ag4
ag4
ag4
ag4
ag4
ag4
ag4
ag4
ag4
ag4
ag4
ag4
ag4
ag4
ag4
ag4
ag4
ag4
ag4
ag4
ag4
ag4
aa(lp19
g4
ag4
ag4
ag4
ag4
ag4
ag4
ag4
ag4
ag4
ag4
ag4
ag4
ag4
ag4
ag4
ag4
ag4
ag4
ag4
ag4
ag4
ag4
ag4
ag4
ag4
ag4
ag4
ag4
ag4
ag4
ag4
ag4
ag4
ag4
ag4
ag4
ag4
ag4
ag4
ag4
ag4
ag4
ag4
ag4
ag4
ag4
ag4
ag4
ag4
aa(lp20
g4
ag4
ag4
ag4
ag4
ag4
ag4
ag4
ag4
ag4
ag4
ag4
ag4
ag4
ag4
ag4
ag4
ag4
ag4
ag4
ag4
ag4
ag4
ag4
ag4
ag4
ag4
ag4
ag4
ag4
ag4
ag4
ag4
ag4
ag4
ag4
ag4
ag4
ag4
ag4
ag4
ag4
ag4
ag4
ag4
ag4
ag4
ag4
ag4
ag4
aa(lp21
g4
ag4
ag4
ag4
ag4
ag4
ag4
ag4
ag4
ag4
ag4
ag4
ag4
ag4
ag4
ag4
ag4
ag4
ag4
ag4
ag4
ag4
ag4
ag4
ag4
ag4
ag4
ag4
ag4
ag4
ag4
ag4
ag4
ag4
ag4
ag4
ag4
ag4
ag4
ag4
ag4
ag4
ag4
ag4
ag4
ag4
ag4
ag4
ag4
ag4
aa(lp22
g4
ag4
ag4
ag4
ag4
ag4
ag4
ag4
ag4
ag4
ag4
ag4
ag4
aS'herbe'
p23
ag4
ag4
ag4
ag4
ag4
ag4
ag4
ag4
ag4
ag4
ag4
ag4
ag4
ag4
ag4
ag4
ag4
ag4
ag4
ag4
ag4
ag4
ag4
ag4
ag4
ag4
ag4
ag4
ag4
ag4
ag4
ag4
ag4
ag4
ag4
ag4
aa(lp24
g4
ag4
ag4
ag4
ag4
ag4
ag4
ag4
ag4
ag4
ag4
ag4
ag4
ag23
ag23
ag4
ag23
ag4
ag4
ag4
ag4
ag4
ag4
ag4
ag4
ag4
ag4
ag4
ag4
ag4
ag4
ag4
ag4
ag4
ag4
ag4
ag4
ag4
ag4
ag4
ag4
ag4
ag4
ag4
ag4
ag4
ag4
ag4
ag4
ag4
aa(lp25
g4
ag4
ag4
ag4
ag4
ag4
ag4
ag4
ag4
ag4
ag4
ag4
aS'mur'
p26
ag26
ag26
ag4
ag4
ag4
ag4
ag4
ag4
ag4
ag4
ag4
ag4
ag4
ag4
ag4
ag4
ag4
ag4
ag4
ag4
ag4
ag4
ag4
ag4
ag4
ag4
ag4
ag4
ag4
ag4
ag4
ag4
ag4
ag4
ag4
ag4
ag4
aa(lp27
g4
ag4
ag4
ag4
ag4
ag4
ag4
ag4
ag4
ag4
ag4
ag4
ag4
ag4
ag4
ag4
ag4
ag4
ag4
ag23
ag23
ag4
ag4
ag4
ag4
ag4
ag4
ag4
ag4
ag4
ag4
ag4
ag4
ag4
ag4
ag4
ag4
ag4
ag4
ag4
ag4
ag4
ag4
ag4
ag4
ag4
ag4
ag4
ag4
ag4
aa(lp28
g4
ag4
ag4
ag4
ag4
ag4
ag4
ag4
ag4
ag4
ag26
ag4
ag4
ag26
ag26
ag23
ag23
ag23
ag26
ag26
ag23
ag4
ag4
ag4
ag4
ag4
ag4
ag4
ag4
ag4
ag4
ag4
ag4
ag4
ag4
ag4
ag4
ag4
ag4
ag4
ag4
ag4
ag4
ag4
ag4
ag4
ag4
ag4
ag4
ag4
aa(lp29
g4
ag4
ag4
ag4
ag4
ag4
ag4
ag4
ag4
ag4
ag4
ag26
ag4
ag26
ag26
ag4
ag23
ag26
ag26
ag4
ag26
ag23
ag4
ag4
ag4
ag4
ag4
ag4
ag4
ag4
ag4
ag4
ag4
ag4
ag4
ag4
ag4
ag4
ag4
ag4
ag4
ag4
ag4
ag4
ag4
ag4
ag4
ag4
ag4
ag4
aa(lp30
g4
ag4
ag4
ag4
ag4
ag4
ag4
ag4
ag26
ag4
ag26
ag26
ag26
ag4
ag26
ag4
ag23
ag23
ag26
ag4
ag4
ag4
ag4
ag23
ag26
ag23
ag23
ag4
ag4
ag4
ag4
ag4
ag4
ag4
ag4
ag4
ag4
ag4
ag4
ag4
ag4
ag4
ag4
ag4
ag4
ag4
ag4
ag4
ag4
ag4
aa(lp31
g4
ag4
ag4
ag4
ag4
ag4
ag4
ag4
ag4
ag4
ag4
ag4
ag26
ag26
ag26
ag4
ag26
ag26
ag26
ag23
ag4
ag4
ag4
ag26
ag26
ag23
ag23
ag4
ag4
ag4
ag4
ag4
ag4
ag4
ag4
ag4
ag4
ag4
ag4
ag4
ag4
ag4
ag4
ag4
ag4
ag4
ag4
ag4
ag4
ag4
aa(lp32
g4
ag4
ag4
ag4
ag4
ag4
ag4
ag4
ag4
ag4
ag4
ag4
ag4
ag4
ag4
ag26
ag26
ag26
ag4
ag4
ag4
ag26
ag4
ag23
ag23
ag4
ag4
ag4
ag4
ag4
ag4
ag4
ag4
ag4
ag4
ag4
ag4
ag4
ag4
ag4
ag4
ag4
ag4
ag4
ag4
ag4
ag4
ag4
ag4
ag4
aa(lp33
g4
ag4
ag4
ag4
ag4
ag4
ag4
ag4
ag4
ag4
ag4
ag4
ag4
ag4
ag4
ag4
ag26
ag26
ag4
ag26
ag4
ag26
ag4
ag26
ag26
ag4
ag4
ag4
ag4
ag4
ag4
ag4
ag4
ag4
ag4
ag4
ag4
ag4
ag4
ag4
ag4
ag4
ag4
ag4
ag4
ag4
ag4
ag4
ag4
ag4
aa(lp34
g4
ag4
ag4
ag4
ag4
ag4
ag4
ag4
ag4
ag4
ag26
ag4
ag4
ag4
ag26
ag4
ag4
ag4
ag26
ag26
ag4
ag4
ag4
ag26
ag23
ag4
ag4
ag26
ag23
ag23
ag4
ag4
ag4
ag4
ag4
ag4
ag4
ag4
ag4
ag4
ag4
ag4
ag4
ag4
ag4
ag4
ag4
ag4
ag4
ag4
aa(lp35
g4
ag4
ag4
ag4
ag4
ag4
ag4
ag4
ag4
ag4
ag4
ag4
ag26
ag4
ag4
ag26
ag4
ag4
ag4
ag4
ag26
ag26
ag4
ag4
ag4
ag26
ag4
ag26
ag26
ag23
ag4
ag4
ag4
ag4
ag4
ag4
ag4
ag4
ag4
ag4
ag4
ag4
ag4
ag4
ag4
ag4
ag4
ag4
ag4
ag4
aa(lp36
g4
ag4
ag4
ag4
ag4
ag4
ag4
ag4
ag4
ag4
ag4
ag4
ag4
ag26
ag4
ag4
ag4
ag4
ag4
ag4
ag26
ag26
ag26
ag4
ag4
ag4
ag4
ag4
ag4
ag4
ag4
ag4
ag4
ag4
ag4
ag4
ag4
ag4
ag4
ag4
ag4
ag4
ag4
ag4
ag4
ag4
ag4
ag4
ag4
ag4
aa(lp37
g4
ag4
ag4
ag4
ag4
ag4
ag4
ag4
ag4
ag4
ag4
ag4
ag4
ag4
ag4
ag4
ag26
ag4
ag4
ag4
ag4
ag26
ag26
ag26
ag4
ag26
ag4
ag4
ag4
ag4
ag4
ag4
ag4
ag4
ag4
ag4
ag4
ag4
ag4
ag4
ag4
ag4
ag4
ag4
ag4
ag4
ag4
ag4
ag4
ag4
aa(lp38
g4
ag4
ag4
ag4
ag4
ag4
ag4
ag4
ag4
ag4
ag4
ag4
ag4
ag4
ag4
ag4
ag4
ag4
ag26
ag26
ag23
ag4
ag4
ag26
ag26
ag4
ag4
ag4
ag4
ag4
ag4
ag4
ag4
ag4
ag4
ag4
ag4
ag4
ag4
ag4
ag4
ag4
ag4
ag4
ag4
ag4
ag4
ag4
ag4
ag4
aa(lp39
g4
ag4
ag4
ag4
ag4
ag4
ag4
ag4
ag4
ag4
ag4
ag4
ag4
ag4
ag4
ag4
ag26
ag4
ag23
ag23
ag26
ag4
ag4
ag26
ag4
ag26
ag26
ag26
ag23
ag4
ag4
ag4
ag4
ag4
ag4
ag4
ag4
ag4
ag4
ag4
ag4
ag4
ag4
ag4
ag4
ag4
ag4
ag4
ag4
ag4
aa(lp40
g4
ag4
ag4
ag4
ag4
ag4
ag4
ag4
ag4
ag4
ag4
ag4
ag26
ag4
ag4
ag26
ag26
ag4
ag23
ag23
ag23
ag4
ag4
ag4
ag4
ag23
ag26
ag23
ag26
ag23
ag4
ag4
ag4
ag26
ag23
ag4
ag4
ag4
ag4
ag4
ag4
ag4
ag4
ag4
ag4
ag4
ag4
ag4
ag4
ag4
aa(lp41
g4
ag4
ag4
ag4
ag4
ag4
ag4
ag4
ag4
ag4
ag4
ag4
ag4
ag26
ag4
ag4
ag4
ag4
ag26
ag23
ag23
ag26
ag26
ag23
ag23
ag26
ag26
ag26
ag26
ag26
ag26
ag23
ag4
ag26
ag23
ag4
ag4
ag4
ag4
ag4
ag4
ag4
ag4
ag4
ag4
ag4
ag4
ag4
ag4
ag4
aa(lp42
g4
ag4
ag4
ag4
ag4
ag4
ag4
ag4
ag4
ag4
ag4
ag4
ag4
ag4
ag4
ag4
ag4
ag4
ag4
ag26
ag4
ag4
ag26
ag26
ag23
ag23
ag23
ag26
ag23
ag23
ag26
ag23
ag4
ag4
ag4
ag4
ag4
ag4
ag4
ag4
ag4
ag4
ag4
ag4
ag4
ag4
ag4
ag4
ag4
ag4
aa(lp43
g4
ag4
ag4
ag4
ag4
ag4
ag4
ag4
ag4
ag4
ag4
ag4
ag4
ag4
ag4
ag4
ag4
ag4
ag4
ag4
ag4
ag4
ag4
ag4
ag4
ag4
ag4
ag26
ag26
ag23
ag26
ag26
ag4
ag26
ag26
ag23
ag4
ag4
ag4
ag4
ag4
ag4
ag4
ag4
ag4
ag4
ag4
ag4
ag4
ag4
aa(lp44
g4
ag4
ag4
ag4
ag4
ag4
ag4
ag4
ag4
ag4
ag4
ag4
ag4
ag4
ag4
ag4
ag4
ag4
ag4
ag4
ag4
ag4
ag4
ag4
ag26
ag23
ag26
ag23
ag4
ag4
ag4
ag4
ag4
ag26
ag23
ag23
ag4
ag4
ag4
ag4
ag4
ag4
ag4
ag4
ag4
ag4
ag4
ag4
ag4
ag4
aa(lp45
g4
ag4
ag4
ag4
ag4
ag4
ag4
ag4
ag4
ag4
ag4
ag4
ag4
ag4
ag4
ag4
ag4
ag4
ag4
ag4
ag4
ag4
ag4
ag4
ag23
ag26
ag23
ag23
ag4
ag4
ag4
ag4
ag4
ag4
ag26
ag26
ag4
ag4
ag4
ag4
ag4
ag4
ag4
ag4
ag4
ag4
ag4
ag4
ag4
ag4
aa(lp46
g4
ag4
ag4
ag4
ag4
ag4
ag4
ag4
ag4
ag4
ag4
ag4
ag4
ag4
ag4
ag4
ag4
ag4
ag4
ag4
ag4
ag4
ag4
ag4
ag26
ag23
ag23
ag23
ag4
ag4
ag4
ag4
ag4
ag4
ag4
ag23
ag26
ag4
ag4
ag4
ag4
ag4
ag4
ag4
ag4
ag4
ag4
ag4
ag4
ag4
aa(lp47
g4
ag4
ag4
ag4
ag4
ag4
ag4
ag4
ag4
ag4
ag4
ag4
ag4
ag4
ag4
ag4
ag4
ag4
ag4
ag4
ag4
ag4
ag4
ag4
ag4
ag23
ag4
ag4
ag4
ag4
ag4
ag26
ag23
ag4
ag4
ag4
ag4
ag4
ag4
ag4
ag4
ag4
ag4
ag4
ag4
ag4
ag4
ag4
ag4
ag4
aa(lp48
g4
ag4
ag4
ag4
ag4
ag4
ag4
ag4
ag4
ag4
ag4
ag4
ag4
ag4
ag4
ag4
ag4
ag4
ag4
ag4
ag4
ag4
ag4
ag4
ag4
ag4
ag4
ag4
ag4
ag4
ag4
ag23
aS'herbe'
p49
ag4
ag4
ag4
ag4
ag4
ag4
ag4
ag4
ag4
ag4
ag4
ag4
ag4
ag4
ag4
ag4
ag4
aa(lp50
g4
ag4
ag4
ag4
ag4
ag4
ag4
ag4
ag4
ag4
ag4
ag4
ag4
ag4
ag4
ag4
ag4
ag4
ag4
ag4
ag4
ag4
ag4
ag4
ag4
ag4
ag4
ag4
ag4
ag4
ag4
ag4
ag4
ag4
ag4
ag4
ag4
ag4
ag4
ag4
ag4
ag4
ag4
ag4
ag4
ag4
ag4
ag4
ag4
ag4
aa(lp51
g4
ag4
ag4
ag4
ag4
ag4
ag4
ag4
ag4
ag4
ag4
ag4
ag4
ag4
ag4
ag4
ag4
ag4
ag4
ag4
ag4
ag4
ag4
ag4
ag4
ag4
ag4
ag4
ag4
ag4
ag4
ag4
ag4
ag4
ag4
ag4
ag4
ag4
ag4
ag4
ag4
ag4
ag4
ag4
ag4
ag4
ag4
ag4
ag4
ag4
aa(lp52
g4
ag4
ag4
ag4
ag4
ag4
ag4
ag4
ag4
ag4
ag4
ag4
ag4
ag4
ag4
ag4
ag4
ag4
ag4
ag4
ag4
ag4
ag4
ag4
ag4
ag4
ag4
ag4
ag4
ag4
ag4
ag4
ag4
ag4
ag4
ag4
ag4
ag4
ag4
ag4
ag4
ag4
ag4
ag4
ag4
ag4
ag4
ag4
ag4
ag4
aa(lp53
g4
ag4
ag4
ag4
ag4
ag4
ag4
ag4
ag4
ag4
ag4
ag4
ag4
ag4
ag4
ag4
ag4
ag4
ag4
ag4
ag4
ag4
ag4
ag4
ag4
ag4
ag4
ag4
ag4
ag4
ag4
ag4
ag4
ag4
ag4
ag4
ag4
ag4
ag4
ag4
ag4
ag4
ag4
ag4
ag4
ag4
ag4
ag4
ag4
ag4
aa(lp54
g4
ag4
ag4
ag4
ag4
ag4
ag4
ag4
ag4
ag4
ag4
ag4
ag4
ag4
ag4
ag4
ag4
ag4
ag4
ag4
ag4
ag4
ag4
ag4
ag4
ag4
ag4
ag4
ag4
ag4
ag4
ag4
ag4
ag4
ag4
ag4
ag4
ag4
ag4
ag4
ag4
ag4
ag4
ag4
ag4
ag4
ag4
ag4
ag4
ag4
aa(lp55
g4
ag4
ag4
ag4
ag4
ag4
ag4
ag4
ag4
ag4
ag4
ag4
ag4
ag4
ag4
ag4
ag4
ag4
ag4
ag4
ag4
ag4
ag4
ag4
ag4
ag4
ag4
ag4
ag4
ag4
ag4
ag4
ag4
ag4
ag4
ag4
ag4
ag4
ag4
ag4
ag4
ag4
ag4
ag4
ag4
ag4
ag4
ag4
ag4
ag4
aa(lp56
g4
ag4
ag4
ag4
ag4
ag4
ag4
ag4
ag4
ag4
ag4
ag4
ag4
ag4
ag4
ag4
ag4
ag4
ag4
ag4
ag4
ag4
ag4
ag4
ag4
ag4
ag4
ag4
ag4
ag4
ag4
ag4
ag4
ag4
ag4
ag4
ag4
ag4
ag4
ag4
ag4
ag4
ag4
ag4
ag4
ag4
ag4
ag4
ag4
ag4
aa(lp57
g4
ag4
ag4
ag4
ag4
ag4
ag4
ag4
ag4
ag4
ag4
ag4
ag4
ag4
ag4
ag4
ag4
ag4
ag4
ag4
ag4
ag4
ag4
ag4
ag4
ag4
ag4
ag4
ag4
ag4
ag4
ag4
ag4
ag4
ag4
ag4
ag4
ag4
ag4
ag4
ag4
ag4
ag4
ag4
ag4
ag4
ag4
ag4
ag4
ag4
aa(lp58
g4
ag4
ag4
ag4
ag4
ag4
ag4
ag4
ag4
ag4
ag4
ag4
ag4
ag4
ag4
ag4
ag4
ag4
ag4
ag4
ag4
ag4
ag4
ag4
ag4
ag4
ag4
ag4
ag4
ag4
ag4
ag4
ag4
ag4
ag4
ag4
ag4
ag4
ag4
ag4
ag4
ag4
ag4
ag4
ag4
ag4
ag4
ag4
ag4
ag4
aa(lp59
g4
ag4
ag4
ag4
ag4
ag4
ag4
ag4
ag4
ag4
ag4
ag4
ag4
ag4
ag4
ag4
ag4
ag4
ag4
ag4
ag4
ag4
ag4
ag4
ag4
ag4
ag4
ag4
ag4
ag4
ag4
ag4
ag4
ag4
ag4
ag4
ag4
ag4
ag4
ag4
ag4
ag4
ag4
ag4
ag4
ag4
ag4
ag4
ag4
ag4
aa(lp60
g4
ag4
ag4
ag4
ag4
ag4
ag4
ag4
ag4
ag4
ag4
ag4
ag4
ag4
ag4
ag4
ag4
ag4
ag4
ag4
ag4
ag4
ag4
ag4
ag4
ag4
ag4
ag4
ag4
ag4
ag4
ag4
ag4
ag4
ag4
ag4
ag4
ag4
ag4
ag4
ag4
ag4
ag4
ag4
ag4
ag4
ag4
ag4
ag4
ag4
aa(lp61
g4
ag4
ag4
ag4
ag4
ag4
ag4
ag4
ag4
ag4
ag4
ag4
ag4
ag4
ag4
ag4
ag4
ag4
ag4
ag4
ag4
ag4
ag4
ag4
ag4
ag4
ag4
ag4
ag4
ag4
ag4
ag4
ag4
ag4
ag4
ag4
ag4
ag4
ag4
ag4
ag4
ag4
ag4
ag4
ag4
ag4
ag4
ag4
ag4
ag4
aa(lp62
g4
ag4
ag4
ag4
ag4
ag4
ag4
ag4
ag4
ag4
ag4
ag4
ag4
ag4
ag4
ag4
ag4
ag4
ag4
ag4
ag4
ag4
ag4
ag4
ag4
ag4
ag4
ag4
ag4
ag4
ag4
ag4
ag4
ag4
ag4
ag4
ag4
ag4
ag4
ag4
ag4
ag4
ag4
ag4
ag4
ag4
ag4
ag3
ag3
ag3
aa(lp63
g4
ag4
ag4
ag4
ag4
ag4
ag4
ag4
ag4
ag4
ag4
ag4
ag4
ag4
ag4
ag4
ag4
ag4
ag4
ag4
ag4
ag4
ag4
ag4
ag4
ag4
ag4
ag4
ag4
ag4
ag4
ag4
ag4
ag4
ag4
ag4
ag4
ag4
ag4
ag4
ag4
ag4
ag4
ag4
ag4
ag4
ag4
ag3
ag3
ag3
aa(lp64
g5
ag5
ag5
ag5
ag5
ag4
ag4
ag4
ag4
ag4
ag4
ag4
ag4
ag4
ag4
ag4
ag4
ag4
ag4
ag4
ag4
ag4
ag4
ag4
ag4
ag4
ag4
ag4
ag4
ag4
ag4
ag4
ag4
ag4
ag4
ag4
ag4
ag4
ag4
ag4
ag4
ag4
ag4
ag4
ag4
ag4
ag4
ag3
ag3
ag3
aaa(lp65
(lp66
S''
p67
ag67
ag67
ag67
ag67
aS'arbre'
p68
ag68
ag68
ag68
ag68
ag68
ag68
ag68
ag68
ag68
ag68
ag68
ag68
ag68
ag68
ag68
ag68
ag68
ag68
ag68
ag68
ag68
ag68
ag68
ag68
ag68
ag68
ag68
ag68
ag68
ag68
ag68
ag68
ag68
ag68
ag68
ag68
ag68
ag68
ag68
ag68
ag68
ag68
aS'arbre'
p69
ag69
aa(lp70
g67
aS'porte_boss'
p71
ag67
ag67
ag67
ag68
ag68
ag68
ag68
ag68
ag68
ag68
ag68
ag68
ag68
ag68
ag68
ag68
ag68
ag68
ag68
ag68
ag68
ag68
ag68
ag68
ag68
ag68
ag68
ag68
ag68
ag68
ag68
ag68
ag68
ag68
ag68
ag68
ag68
ag68
ag68
ag68
ag68
ag68
ag68
ag68
ag68
ag68
ag69
ag69
aa(lp72
g67
aS'coffre_boss'
p73
ag67
ag67
ag67
ag67
ag67
ag67
ag67
ag67
ag68
ag68
ag67
ag68
ag67
ag68
ag67
ag67
ag67
ag68
ag68
aS'coffre'
p74
ag68
ag67
ag68
ag68
ag68
ag68
ag67
ag67
ag67
ag67
ag67
ag67
ag67
ag67
ag67
ag67
ag67
aS'arbre'
p75
ag67
ag67
ag68
ag68
ag67
ag67
ag67
ag67
ag69
ag69
aa(lp76
g67
ag67
ag67
aS'boss'
p77
ag67
ag67
ag67
ag67
ag67
ag67
aS'ennemi'
p78
ag67
ag67
ag67
ag67
aS'ennemi'
p79
ag67
ag67
ag67
ag79
ag79
ag67
ag68
ag68
ag67
ag67
ag68
ag67
ag67
ag67
ag75
ag67
ag67
ag68
ag68
ag67
ag67
ag68
ag67
ag67
ag67
ag67
ag68
ag68
ag67
ag74
ag74
ag67
ag69
ag69
aa(lp80
g67
ag67
ag67
ag67
ag67
ag67
ag67
ag67
ag67
ag68
ag68
ag68
ag67
ag67
ag67
ag79
ag79
ag67
ag67
ag67
ag68
ag68
ag68
ag68
ag67
ag67
ag68
ag67
ag67
ag67
ag75
ag67
ag67
ag68
ag68
ag67
ag67
ag67
ag68
ag67
ag75
ag67
ag68
ag67
ag67
ag67
ag67
ag67
ag69
ag69
aa(lp81
g69
ag69
ag67
ag67
ag68
ag78
ag78
ag67
ag67
ag67
ag68
ag67
ag68
ag67
ag67
ag67
ag67
ag68
ag68
ag68
ag68
ag67
ag68
ag68
ag68
ag68
ag67
ag67
ag67
ag67
ag67
ag78
ag67
ag67
ag67
ag67
ag67
ag67
ag67
ag67
ag67
ag67
ag67
ag68
ag68
ag78
ag68
ag68
ag69
ag69
aa(lp82
g69
ag69
ag67
ag67
ag67
ag67
ag68
ag67
ag68
ag67
ag67
ag67
ag67
ag67
ag67
ag68
ag68
ag68
ag68
ag68
ag67
ag67
ag67
ag67
ag78
ag67
ag67
ag67
ag67
ag67
ag67
ag68
ag68
ag67
ag68
ag67
ag67
ag67
ag68
ag68
ag67
ag67
ag67
ag78
ag67
ag67
ag67
ag68
ag68
ag69
aa(lp83
g69
ag69
ag67
ag67
ag67
ag67
ag68
ag68
ag68
ag67
ag67
ag67
ag67
aS'ennemi'
p84
ag67
ag68
ag68
ag67
ag67
ag67
ag67
ag67
ag67
ag67
ag68
ag68
ag68
ag68
ag67
ag67
ag67
ag68
ag68
ag67
ag67
ag67
ag68
ag68
ag78
ag68
ag68
ag68
ag68
ag67
ag67
ag67
ag67
ag68
ag68
ag69
aa(lp85
g69
ag69
ag67
ag68
ag67
ag68
ag67
ag67
ag78
ag67
ag67
ag67
ag67
ag67
ag67
ag67
ag68
ag68
ag67
ag67
ag67
ag67
ag67
ag67
ag68
ag68
ag68
ag68
ag67
ag67
ag67
ag67
ag67
ag67
ag67
ag67
ag67
ag68
ag67
ag68
ag68
ag68
ag68
ag68
ag68
ag67
ag67
ag67
ag69
ag69
aa(lp86
g69
ag69
ag78
ag68
ag68
ag68
ag67
ag67
ag68
ag68
ag68
ag68
ag68
ag68
ag67
ag67
ag67
ag67
ag67
ag67
ag68
ag68
ag67
ag68
ag68
ag67
ag75
ag67
ag67
ag67
ag67
ag67
ag68
ag67
ag67
ag68
ag68
ag68
ag75
ag67
ag67
ag67
ag67
ag68
ag67
ag67
ag67
ag67
ag69
ag69
aa(lp87
g69
ag69
ag67
ag67
ag67
ag68
ag67
ag67
ag67
ag67
ag75
ag67
ag67
ag67
ag67
ag79
ag67
ag68
ag67
ag68
ag67
ag67
ag67
ag68
ag68
ag67
ag67
ag67
ag67
ag68
ag68
ag68
ag67
ag67
ag67
ag67
ag67
ag67
ag67
ag67
ag67
ag67
ag67
ag68
ag68
ag67
ag67
ag67
ag69
ag69
aa(lp88
g69
ag69
ag67
ag67
ag67
ag68
ag67
ag75
ag67
ag67
ag67
ag67
ag67
ag67
ag67
ag75
ag67
ag67
ag67
ag67
ag67
ag67
ag67
ag67
ag68
ag67
ag67
ag67
ag67
ag68
ag68
ag67
ag67
ag67
ag67
ag67
ag67
ag67
ag67
ag67
ag75
ag67
ag75
ag68
ag68
ag67
ag68
ag67
ag69
ag69
aa(lp89
g69
ag69
ag67
ag84
ag67
ag67
ag67
ag67
ag67
ag67
ag68
ag68
ag67
ag67
ag67
ag67
ag67
ag75
ag67
ag68
ag67
ag67
ag67
ag67
ag67
ag67
ag67
ag67
ag67
ag67
ag68
ag67
ag67
ag68
ag68
ag67
ag67
ag68
ag67
ag67
ag67
ag67
ag67
ag68
ag68
ag67
ag67
ag67
ag69
ag69
aa(lp90
g69
ag69
ag67
ag67
ag68
ag67
ag67
ag67
ag68
ag67
ag68
ag68
ag67
ag67
ag67
ag67
ag67
ag67
ag67
ag67
ag67
ag67
ag67
ag67
ag67
ag75
ag67
ag68
ag68
ag68
ag68
ag67
ag67
ag68
ag68
ag68
ag68
ag67
ag67
ag67
ag67
ag75
ag75
ag67
ag67
ag68
ag78
ag68
ag69
ag69
aa(lp91
g69
ag69
ag67
ag68
ag68
ag67
ag67
ag68
ag67
ag67
ag67
ag68
ag67
ag67
ag67
ag67
ag67
ag67
ag67
ag67
ag68
ag68
ag68
ag67
ag67
ag67
ag67
ag68
ag68
ag67
ag68
ag67
ag67
ag67
ag67
ag67
ag67
ag68
ag67
ag67
ag68
ag68
ag67
ag67
ag67
ag67
ag67
ag68
ag69
ag69
aa(lp92
g69
ag69
ag67
ag67
ag68
ag67
ag67
ag68
ag67
ag67
ag67
ag67
ag67
ag67
ag67
ag75
ag67
ag67
ag67
ag67
ag68
ag68
ag68
ag67
ag68
ag68
ag68
ag67
ag67
ag67
ag67
ag67
ag67
ag68
ag68
ag68
ag67
ag68
ag68
ag67
ag68
ag68
ag67
ag78
ag68
ag68
ag68
ag67
ag69
ag69
aa(lp93
g69
ag69
ag67
ag67
ag68
ag68
ag67
ag67
ag67
ag67
ag67
ag67
ag67
ag67
ag67
ag67
ag67
ag67
ag67
ag67
ag67
ag67
ag67
ag67
ag67
ag67
ag67
ag67
ag67
ag67
ag67
ag67
ag67
ag68
ag68
ag68
ag67
ag67
ag68
ag67
ag67
ag67
ag67
ag67
ag68
ag68
ag68
ag67
ag69
ag69
aa(lp94
g69
ag69
ag67
ag68
ag67
ag67
ag68
ag67
ag67
ag67
ag67
ag67
ag67
ag67
ag67
ag67
ag67
ag67
ag67
ag67
ag67
ag67
ag67
ag67
ag67
ag67
ag67
ag68
ag68
ag67
ag79
ag67
ag67
ag67
ag67
ag67
ag67
ag67
ag68
ag68
ag67
ag67
ag67
ag67
ag67
ag67
ag67
ag67
ag69
ag69
aa(lp95
g69
ag69
ag67
ag67
ag67
ag67
ag68
ag68
ag68
ag67
ag67
ag67
ag67
ag67
ag67
ag67
ag67
ag67
ag67
ag67
ag67
ag67
ag67
ag67
ag67
ag67
ag67
ag67
ag68
ag67
ag67
ag68
ag68
ag67
ag67
ag79
ag67
ag67
ag68
ag68
ag67
ag67
ag67
ag68
ag67
ag68
ag68
ag68
ag69
ag69
aa(lp96
g69
ag69
ag67
ag67
ag68
ag68
ag68
ag67
ag68
ag67
ag67
ag67
aS'arbre'
p97
ag97
ag67
ag67
ag67
ag67
ag67
ag67
ag67
ag67
ag67
ag67
ag67
ag67
ag68
ag67
ag68
ag78
ag78
ag68
ag68
ag67
ag67
ag67
ag67
ag67
ag67
ag68
ag68
ag68
ag67
ag67
ag67
ag68
ag67
ag68
ag69
ag69
aa(lp98
g69
ag69
ag67
ag67
ag67
ag67
ag67
ag68
ag67
ag67
ag67
ag67
ag67
ag67
ag67
ag67
ag79
ag67
ag67
ag67
ag67
ag67
ag67
ag67
ag67
ag67
ag67
ag67
ag67
ag67
ag67
ag67
ag68
ag67
ag67
ag68
ag68
ag67
ag68
ag67
ag67
ag67
ag67
ag67
ag67
ag68
ag67
ag68
ag69
ag69
aa(lp99
g69
ag69
ag84
ag67
ag68
ag67
ag67
ag67
ag67
ag67
ag67
ag78
ag67
ag67
ag67
ag67
ag67
ag97
ag67
ag67
ag67
ag67
ag67
ag67
ag67
ag67
ag67
ag67
ag67
ag67
ag67
ag67
ag67
ag67
ag67
ag68
ag67
ag68
ag68
ag67
ag67
ag67
ag67
ag67
ag67
ag67
ag67
ag67
ag69
ag69
aa(lp100
g69
ag69
ag67
ag67
ag67
ag68
ag67
ag67
ag68
ag67
ag78
ag67
ag67
ag67
ag67
ag67
ag67
ag67
ag97
ag79
ag67
ag67
ag67
ag67
ag67
ag67
ag78
ag67
ag67
ag67
ag67
ag67
ag67
ag67
ag67
ag84
ag67
aS'coffre'
p101
ag68
ag68
ag67
ag68
ag68
ag67
ag68
ag68
ag67
ag67
ag69
ag69
aa(lp102
g69
ag69
ag67
ag67
ag68
ag67
ag67
ag67
ag67
ag68
ag67
ag97
ag67
ag67
ag67
ag67
ag67
ag67
ag67
ag67
ag67
ag67
ag67
ag67
ag67
ag67
ag78
ag67
ag67
ag67
ag68
ag67
ag79
ag67
ag67
ag68
ag68
ag68
ag67
ag68
ag67
ag67
ag68
ag67
ag68
ag68
ag67
ag67
ag69
ag69
aa(lp103
g69
ag69
ag68
ag67
ag67
ag67
ag67
ag68
ag67
ag67
ag67
ag67
ag67
ag97
ag67
ag67
ag67
ag67
ag67
ag67
ag67
ag67
ag67
ag67
ag67
ag67
ag67
ag67
ag67
ag68
ag68
ag68
ag67
ag68
ag67
ag67
ag67
ag67
ag67
ag67
ag67
ag67
ag67
ag68
ag67
ag67
ag67
ag67
ag69
ag69
aa(lp104
g69
ag69
ag68
ag67
ag67
ag67
ag68
ag67
ag67
ag68
ag67
ag79
ag67
ag97
ag67
ag67
ag67
ag67
ag67
ag67
ag67
ag97
ag67
ag67
ag67
ag67
ag67
ag67
ag67
ag68
ag68
ag68
ag67
ag68
ag67
ag67
ag68
ag67
ag68
ag68
ag84
ag68
ag67
ag67
ag67
ag67
ag67
ag67
ag69
ag69
aa(lp105
g69
ag69
ag67
ag67
ag67
ag67
ag67
ag67
ag67
ag68
ag67
ag67
ag67
ag67
ag67
ag67
ag67
ag97
ag67
ag67
ag67
ag67
ag67
ag67
ag79
ag67
ag67
ag67
ag67
ag67
ag67
ag67
ag79
ag67
ag67
ag67
ag68
ag67
ag67
ag68
ag67
ag67
ag68
ag68
ag67
ag67
ag68
ag68
ag69
ag69
aa(lp106
g69
ag69
ag67
ag67
ag68
ag68
ag67
ag67
ag68
ag68
ag67
ag67
ag67
ag67
ag67
ag67
ag67
ag67
ag67
ag67
ag67
ag67
ag67
ag67
ag67
ag67
ag67
ag67
ag67
ag67
ag67
ag67
ag67
ag67
ag67
ag67
ag68
ag67
ag67
ag67
ag67
ag67
ag67
ag67
ag67
ag67
ag68
ag67
ag69
ag69
aa(lp107
g69
ag69
ag67
ag67
ag67
ag68
ag67
ag67
ag67
ag67
ag67
ag67
ag67
ag67
ag67
ag97
ag67
ag67
ag67
ag67
ag67
ag67
ag67
ag67
ag67
ag67
ag67
ag67
ag67
ag67
ag67
ag79
ag67
ag67
ag67
ag67
ag68
ag67
ag68
ag68
ag84
ag68
ag67
ag68
ag67
ag68
ag68
ag67
ag69
ag69
aa(lp108
g69
ag68
ag68
ag68
ag67
ag84
ag67
ag67
ag67
ag67
ag67
ag67
ag67
ag67
ag67
ag67
ag67
ag97
ag67
ag67
ag67
ag97
ag67
ag67
ag67
ag79
ag67
ag67
ag67
ag67
ag67
ag67
ag67
ag67
ag67
ag67
ag68
ag67
ag67
ag68
ag67
ag67
ag68
ag68
ag84
ag68
ag68
ag67
ag69
ag69
aa(lp109
g69
ag68
ag68
ag68
ag67
ag75
ag67
ag68
ag68
ag67
ag68
ag67
ag68
ag68
ag68
ag67
ag67
ag67
ag67
ag67
ag97
ag67
ag67
ag67
ag67
ag67
ag67
ag67
ag67
ag67
ag67
ag67
ag67
ag67
ag67
ag67
ag68
ag67
ag68
ag68
ag67
ag67
ag68
ag67
ag67
ag67
ag67
ag67
ag69
ag69
aa(lp110
g69
ag68
ag67
ag78
ag67
ag84
ag67
ag67
ag67
ag68
ag68
ag68
ag68
ag68
ag67
ag68
ag68
ag68
ag68
ag67
ag67
ag67
ag67
ag67
ag67
ag67
ag67
aS'arbre'
p111
ag67
ag67
ag67
ag67
ag79
ag67
ag67
ag67
ag68
ag68
ag68
ag67
ag67
ag67
ag67
ag67
ag67
ag67
ag67
ag67
ag69
ag69
aa(lp112
g69
ag68
ag68
ag68
ag67
ag111
ag67
ag67
ag68
ag68
ag68
ag67
ag68
ag68
ag68
ag79
ag68
ag67
ag68
ag68
ag67
ag68
ag67
ag67
ag67
ag67
ag67
ag67
ag67
ag67
ag111
ag67
ag67
ag67
ag67
ag67
ag67
ag67
ag68
ag68
ag68
ag67
ag67
ag67
ag67
ag68
ag67
ag68
ag69
ag69
aa(lp113
g69
ag68
ag68
ag68
ag67
ag67
ag67
ag67
ag67
ag68
ag67
ag67
ag67
ag68
ag67
ag67
ag67
ag67
ag67
ag68
ag67
ag67
ag67
ag67
ag78
ag67
ag67
ag67
ag68
ag67
ag67
ag67
ag67
ag111
ag67
ag67
ag68
ag68
ag68
ag68
ag67
ag67
ag67
ag67
ag67
ag68
ag68
ag68
ag69
ag69
aa(lp114
g69
ag68
ag68
ag67
ag67
ag67
ag67
ag67
ag67
ag68
ag67
ag67
ag67
ag67
ag67
ag67
ag67
ag67
ag67
ag68
ag68
ag68
ag67
ag67
ag78
ag67
ag67
ag67
ag67
ag67
ag67
ag67
ag68
ag67
ag67
ag67
ag67
ag67
ag67
ag67
ag67
ag67
ag67
ag67
ag67
ag67
ag67
ag78
ag69
ag69
aa(lp115
g69
ag69
ag67
ag67
ag75
ag67
ag67
ag67
ag67
ag78
ag78
ag68
ag67
ag67
ag67
ag68
ag67
ag67
ag67
ag67
ag67
ag67
ag67
ag67
ag68
ag68
ag68
ag67
ag67
ag68
ag67
ag67
ag68
ag67
ag67
ag67
ag68
ag68
ag67
ag67
ag67
ag67
ag67
ag68
ag67
ag67
ag67
ag67
ag69
ag69
aa(lp116
g69
ag69
ag67
ag67
ag67
ag67
ag75
ag67
ag67
ag67
ag67
ag67
ag68
ag67
ag68
ag67
ag67
ag67
ag67
ag67
ag67
ag67
ag67
ag68
ag68
ag67
ag68
ag67
ag67
ag67
ag67
ag68
ag68
ag67
ag111
ag67
ag68
ag68
ag67
ag67
ag68
ag68
ag67
ag67
ag68
ag67
ag67
ag68
ag69
ag69
aa(lp117
g69
ag69
ag67
ag75
ag67
ag67
ag68
ag111
ag68
ag68
ag67
ag67
ag67
ag67
ag67
ag68
ag68
ag78
ag68
ag68
ag68
ag78
ag78
ag68
ag67
ag67
ag68
ag67
ag67
ag67
ag67
ag68
ag68
ag67
ag67
ag67
ag67
ag67
ag67
ag67
ag67
ag68
ag67
ag67
ag68
ag68
ag68
ag68
ag69
ag69
aa(lp118
g69
ag69
ag67
ag68
ag68
ag67
ag68
ag67
ag68
ag68
ag68
ag67
ag67
ag67
ag67
ag68
ag68
ag67
ag68
ag68
ag68
ag67
ag67
ag67
ag67
ag67
ag67
ag68
ag68
ag67
ag68
ag68
ag68
ag67
ag67
ag67
ag67
ag67
ag67
ag67
ag68
ag68
ag67
ag67
ag67
ag67
ag67
ag67
ag69
ag69
aa(lp119
g69
ag78
ag78
ag68
ag67
ag67
ag111
ag67
ag67
ag67
ag68
ag68
ag67
ag67
ag67
ag68
ag68
ag67
ag67
ag67
ag67
ag67
ag67
ag68
ag67
ag67
ag67
ag68
ag68
ag84
ag68
ag67
ag67
ag68
ag68
ag67
ag67
ag67
ag67
ag67
ag67
ag67
ag68
ag67
ag68
ag67
ag68
ag67
ag69
ag69
aa(lp120
g69
ag69
ag67
ag67
ag111
ag67
ag67
ag67
ag67
ag67
ag67
ag68
ag67
ag68
ag67
ag68
ag68
ag111
ag67
ag67
ag67
ag67
ag67
ag67
ag67
ag68
ag67
ag67
ag67
ag67
ag67
ag67
ag67
ag68
ag68
ag68
ag68
ag67
ag75
ag67
ag67
ag68
ag68
ag67
ag67
ag67
ag68
ag67
ag69
ag69
aa(lp121
g69
ag69
ag67
ag67
ag68
ag67
ag67
ag67
ag75
ag67
ag67
ag68
ag68
ag68
ag111
ag67
ag67
ag67
ag67
ag67
ag111
ag67
ag111
ag68
ag67
ag68
ag67
ag67
ag67
ag67
ag67
ag68
ag67
ag67
ag67
ag68
ag68
ag68
ag75
ag67
ag75
ag67
ag67
ag67
ag67
ag68
ag68
ag67
ag69
ag69
aa(lp122
g69
ag69
ag67
ag67
ag67
ag67
ag67
ag68
ag67
ag67
ag111
ag67
ag68
ag68
ag67
ag67
ag67
ag67
ag67
ag111
ag67
ag67
ag67
ag67
ag67
ag67
ag67
ag67
ag67
ag68
ag68
ag67
ag67
ag68
ag68
ag68
ag67
ag68
ag67
ag67
ag67
ag67
ag67
ag68
ag84
ag67
ag67
ag67
ag69
ag69
aa(lp123
g69
ag69
ag67
ag75
ag67
ag67
ag78
ag67
ag67
ag67
ag75
ag67
ag67
ag78
ag67
ag67
ag111
ag67
ag67
ag67
ag68
ag67
ag111
ag67
ag68
ag67
ag67
ag67
ag68
ag67
ag67
ag67
ag67
ag67
ag67
ag68
ag68
ag68
ag67
ag67
ag84
ag68
ag68
ag68
ag68
ag67
ag68
ag67
ag69
ag69
aa(lp124
g69
ag69
ag67
ag67
ag67
ag68
ag67
ag67
ag67
ag78
ag67
ag67
ag67
ag67
ag68
ag68
ag68
ag67
ag111
ag67
ag67
ag67
ag67
ag67
ag68
ag67
ag68
ag67
ag67
ag67
ag67
ag67
ag67
ag67
ag67
ag67
ag67
ag68
ag67
ag75
ag67
ag67
ag67
ag67
ag68
ag67
ag68
ag67
ag69
ag69
aa(lp125
g69
ag69
ag67
ag67
ag68
ag68
ag68
ag67
ag68
ag67
ag68
ag111
ag67
ag111
ag67
ag67
ag75
ag67
ag67
ag67
ag111
ag111
ag67
ag67
ag68
ag67
ag67
ag67
ag67
ag67
ag68
ag68
ag68
ag68
ag67
ag67
ag67
ag67
ag67
ag84
ag67
ag67
ag67
ag68
ag67
ag67
ag67
ag67
ag69
ag69
aa(lp126
g69
ag69
ag75
ag67
ag67
ag68
ag67
ag68
ag68
ag68
ag68
ag67
ag67
ag67
ag67
ag67
ag67
ag67
ag67
ag75
ag67
ag67
ag67
ag67
ag67
ag67
ag67
ag68
ag67
ag67
ag67
ag67
ag67
ag67
ag67
ag67
ag75
ag67
ag67
ag84
ag67
ag67
ag67
ag67
ag67
ag67
ag67
ag67
ag69
ag69
aa(lp127
g69
ag69
ag67
ag67
ag67
ag67
ag67
ag67
ag67
ag67
ag67
ag67
ag67
ag75
ag67
ag67
ag67
ag67
ag67
ag67
ag67
ag67
ag67
ag67
ag67
ag67
ag67
ag67
ag67
ag67
ag67
ag67
ag67
ag67
ag67
ag67
ag67
ag67
ag68
ag68
ag68
ag68
ag67
ag67
ag67
ag67
ag67
ag67
ag67
ag67
aa(lp128
g69
ag69
ag69
ag69
ag69
ag69
ag69
ag69
ag69
ag69
ag69
ag69
ag69
ag69
ag69
ag69
ag69
ag69
ag69
ag69
ag69
ag69
ag69
ag69
ag69
ag69
ag69
ag69
ag69
ag69
ag69
ag69
ag69
ag69
ag69
ag69
ag69
ag69
ag69
ag69
ag69
ag69
ag69
ag69
ag69
ag69
ag69
ag67
ag67
ag67
aa(lp129
g69
ag69
ag69
ag69
ag69
ag69
ag69
ag69
ag69
ag69
ag69
ag69
ag69
ag69
ag69
ag69
ag69
ag69
ag69
ag69
ag69
ag69
ag69
ag69
ag69
ag69
ag69
ag69
ag69
ag69
ag69
ag69
ag69
ag69
ag69
ag69
ag69
ag69
ag69
ag69
ag69
ag69
ag69
ag69
ag69
ag69
ag69
ag67
ag67
ag67
aaa.