(lp0
(lp1
(lp2
S'mur'
p3
ag3
ag3
ag3
ag3
aS'herbe'
p4
ag4
ag4
ag4
ag4
ag4
ag4
ag4
ag4
ag4
ag4
ag4
ag4
ag4
ag4
ag4
ag4
ag4
ag4
ag4
ag4
ag4
ag4
ag4
ag4
ag4
ag4
ag4
ag4
ag4
ag4
ag4
ag4
ag4
ag4
ag4
ag4
ag4
ag4
ag4
ag4
ag4
aS'herbe'
p5
ag5
ag5
aa(lp6
g3
ag3
aS'herbe'
p7
aS'mur'
p8
ag8
ag4
ag4
ag4
ag4
ag4
ag4
ag4
ag4
ag4
ag4
ag4
ag4
ag4
ag4
ag4
ag4
ag4
ag4
ag4
ag4
ag4
ag4
ag4
ag4
ag4
ag4
ag4
ag4
ag4
ag4
ag4
ag4
ag4
ag4
ag4
ag4
ag4
ag4
ag4
ag4
ag4
ag4
ag4
ag4
ag4
aa(lp9
g3
ag7
ag4
ag4
ag4
ag4
ag4
ag4
ag4
ag4
ag4
ag4
ag4
ag4
ag4
ag4
ag4
ag4
ag4
ag4
ag4
ag4
ag4
ag4
ag4
ag4
ag4
ag4
ag4
ag4
ag4
ag4
ag4
ag4
ag4
ag4
ag4
ag4
ag4
ag4
ag4
ag4
ag4
ag4
ag4
ag4
ag4
ag4
ag4
ag4
aa(lp10
g3
aS'mur'
p11
ag4
ag4
ag4
ag4
ag4
ag4
ag4
ag4
ag4
ag4
ag4
ag4
ag4
ag4
ag4
ag4
ag4
ag4
ag4
ag4
ag4
ag4
ag4
ag4
ag4
ag4
ag4
ag4
ag4
ag4
ag4
ag4
ag4
ag4
ag4
ag4
ag4
ag4
ag4
ag4
ag4
ag4
ag4
ag4
ag4
ag4
ag4
ag4
aa(lp12
g3
ag11
ag4
ag4
ag4
ag4
ag4
ag4
ag4
ag4
ag4
ag4
ag4
ag4
ag4
ag4
ag4
ag4
ag4
ag4
ag4
ag4
ag4
ag4
ag4
ag4
ag4
ag4
ag4
ag4
ag4
ag4
ag4
ag4
ag4
ag4
ag4
ag4
ag4
ag4
ag4
ag4
ag4
ag4
ag4
ag4
ag4
ag4
ag4
ag4
aa(lp13
g4
aS'herbe'
p14
ag4
ag4
ag4
ag4
ag4
ag4
ag4
ag4
ag4
ag4
ag4
ag4
ag4
ag4
ag4
ag4
ag4
ag4
ag4
ag4
ag4
ag4
ag4
ag4
ag4
ag4
ag4
ag4
ag4
ag4
ag4
ag4
ag4
ag4
ag4
ag4
ag4
ag4
ag4
ag4
ag4
ag4
ag4
ag4
ag4
ag4
ag4
ag4
aa(lp15
g4
ag4
ag4
ag4
ag4
ag4
ag4
ag4
ag4
ag4
ag4
ag4
ag4
ag4
ag4
ag4
ag4
ag4
ag4
ag4
ag4
ag4
ag4
ag4
ag4
ag4
ag4
ag4
ag4
ag4
ag4
ag4
ag4
ag4
ag4
ag4
ag4
ag4
ag4
ag4
ag4
ag4
ag4
ag4
ag4
ag4
ag4
ag4
ag4
ag4
aa(lp16
g4
ag4
ag4
ag4
ag4
ag4
ag4
ag4
ag4
ag4
ag4
ag4
ag4
ag4
ag4
ag4
ag4
ag4
ag4
ag4
ag4
ag4
ag4
ag4
ag4
ag4
ag4
ag4
ag4
ag4
ag4
ag4
ag4
ag4
ag4
ag4
ag4
ag4
ag4
ag4
ag4
ag4
ag4
ag4
ag4
ag4
ag4
ag4
ag4
ag4
aa(lp17
g4
ag4
ag4
ag4
ag4
ag4
ag4
ag4
ag4
ag4
ag4
ag4
ag4
ag4
ag4
ag4
ag4
ag4
ag4
ag4
ag4
ag4
ag4
ag4
ag4
ag4
ag4
ag4
ag4
ag4
ag4
ag4
ag4
ag4
ag4
ag4
ag4
ag4
ag4
ag4
ag4
ag4
ag4
ag4
ag4
ag4
ag4
ag4
ag4
ag4
aa(lp18
g4
ag4
ag4
ag4
ag4
ag4
ag4
ag4
ag4
ag4
ag4
ag4
ag4
ag4
ag4
ag4
ag4
ag4
ag4
ag4
ag4
ag4
ag4
ag4
ag4
ag4
ag4
ag4
ag4
ag4
ag4
ag4
ag4
ag4
ag4
ag4
ag4
ag4
ag4
ag4
ag4
ag4
ag4
ag4
ag4
ag4
ag4
ag4
ag4
ag4
aa(lp19
g4
ag4
ag4
ag4
ag4
ag4
ag4
ag4
ag4
ag4
ag4
ag4
ag4
aS'herbe'
p20
ag4
ag4
ag4
ag4
ag4
ag4
ag4
ag4
ag4
ag4
ag4
ag4
ag4
ag4
ag4
ag4
ag4
ag4
ag4
ag4
ag4
ag4
ag4
ag4
ag4
ag4
ag4
ag4
ag4
ag4
ag4
ag4
ag4
ag4
ag4
ag4
aa(lp21
g4
ag4
ag4
ag4
ag4
ag4
ag4
ag4
ag4
ag4
ag4
ag4
ag4
ag20
ag20
ag4
ag20
ag4
ag4
ag4
ag4
ag4
ag4
ag4
ag4
ag4
ag4
ag4
ag4
ag4
ag4
ag4
ag4
ag4
ag4
ag4
ag4
ag4
ag4
ag4
ag4
ag4
ag4
ag4
ag4
ag4
ag4
ag4
ag4
ag4
aa(lp22
g4
ag4
ag4
ag4
ag4
ag4
ag4
ag4
ag4
ag4
ag4
ag4
aS'mur'
p23
ag23
ag23
ag4
ag4
ag4
ag4
ag4
ag4
ag4
ag4
ag4
ag4
ag4
ag4
ag4
ag4
ag4
ag4
ag4
ag4
ag4
ag4
ag4
ag4
ag4
ag4
ag4
ag4
ag4
ag4
ag4
ag4
ag4
ag4
ag4
ag4
ag4
aa(lp24
g4
ag4
ag4
ag4
ag4
ag4
ag4
ag4
ag4
ag4
ag4
ag4
ag4
ag4
ag4
ag4
ag4
ag4
ag4
ag20
ag20
ag4
ag4
ag4
ag4
ag4
ag4
ag4
ag4
ag4
ag4
ag4
ag4
ag4
ag4
ag4
ag4
ag4
ag4
ag4
ag4
ag4
ag4
ag4
ag4
ag4
ag4
ag4
ag4
ag4
aa(lp25
g4
ag4
ag4
ag4
ag4
ag4
ag4
ag4
ag4
ag4
ag23
ag4
ag4
ag23
ag23
ag20
ag20
ag20
ag23
ag23
ag20
ag4
ag4
ag4
ag4
ag4
ag4
ag4
ag4
ag4
ag4
ag4
ag4
ag4
ag4
ag4
ag4
ag4
ag4
ag4
ag4
ag4
ag4
ag4
ag4
ag4
ag4
ag4
ag4
ag4
aa(lp26
g4
ag4
ag4
ag4
ag4
ag4
ag4
ag4
ag4
ag4
ag4
ag23
ag4
ag23
ag23
ag4
ag20
ag23
ag23
ag4
ag23
ag20
ag4
ag4
ag4
ag4
ag4
ag4
ag4
ag4
ag4
ag4
ag4
ag4
ag4
ag4
ag4
ag4
ag4
ag4
ag4
ag4
ag4
ag4
ag4
ag4
ag4
ag4
ag4
ag4
aa(lp27
g4
ag4
ag4
ag4
ag4
ag4
ag4
ag4
ag23
ag4
ag23
ag23
ag23
ag4
ag23
ag4
ag20
ag20
ag23
ag4
ag4
ag4
ag4
ag20
ag23
ag20
ag20
ag4
ag4
ag4
ag4
ag4
ag4
ag4
ag4
ag4
ag4
ag4
ag4
ag4
ag4
ag4
ag4
ag4
ag4
ag4
ag4
ag4
ag4
ag4
aa(lp28
g4
ag4
ag4
ag4
ag4
ag4
ag4
ag4
ag4
ag4
ag4
ag4
ag23
ag23
ag23
ag4
ag23
ag23
ag23
ag20
ag4
ag4
ag4
ag23
ag23
ag20
ag20
ag4
ag4
ag4
ag4
ag4
ag4
ag4
ag4
ag4
ag4
ag4
ag4
ag4
ag4
ag4
ag4
ag4
ag4
ag4
ag4
ag4
ag4
ag4
aa(lp29
g4
ag4
ag4
ag4
ag4
ag4
ag4
ag4
ag4
ag4
ag4
ag4
ag4
ag4
ag4
ag23
ag23
ag23
ag4
ag4
ag4
ag23
ag4
ag20
ag20
ag4
ag4
ag4
ag4
ag4
ag4
ag4
ag4
ag4
ag4
ag4
ag4
ag4
ag4
ag4
ag4
ag4
ag4
ag4
ag4
ag4
ag4
ag4
ag4
ag4
aa(lp30
g4
ag4
ag4
ag4
ag4
ag4
ag4
ag4
ag4
ag4
ag4
ag4
ag4
ag4
ag4
ag4
ag23
ag23
ag4
ag23
ag4
ag23
ag4
ag23
ag23
ag4
ag4
ag4
ag4
ag4
ag4
ag4
ag4
ag4
ag4
ag4
ag4
ag4
ag4
ag4
ag4
ag4
ag4
ag4
ag4
ag4
ag4
ag4
ag4
ag4
aa(lp31
g4
ag4
ag4
ag4
ag4
ag4
ag4
ag4
ag4
ag4
ag23
ag4
ag4
ag4
ag23
ag4
ag4
ag4
ag23
ag23
ag4
ag4
ag4
ag23
ag20
ag4
ag4
ag23
ag20
ag20
ag4
ag4
ag4
ag4
ag4
ag4
ag4
ag4
ag4
ag4
ag4
ag4
ag4
ag4
ag4
ag4
ag4
ag4
ag4
ag4
aa(lp32
g4
ag4
ag4
ag4
ag4
ag4
ag4
ag4
ag4
ag4
ag4
ag4
ag23
ag4
ag4
ag23
ag4
ag4
ag4
ag4
ag23
ag23
ag4
ag4
ag4
ag23
ag4
ag23
ag23
ag20
ag4
ag4
ag4
ag4
ag4
ag4
ag4
ag4
ag4
ag4
ag4
ag4
ag4
ag4
ag4
ag4
ag4
ag4
ag4
ag4
aa(lp33
g4
ag4
ag4
ag4
ag4
ag4
ag4
ag4
ag4
ag4
ag4
ag4
ag4
ag23
ag4
ag4
ag4
ag4
ag4
ag4
ag23
ag23
ag23
ag4
ag4
ag4
ag4
ag4
ag4
ag4
ag4
ag4
ag4
ag4
ag4
ag4
ag4
ag4
ag4
ag4
ag4
ag4
ag4
ag4
ag4
ag4
ag4
ag4
ag4
ag4
aa(lp34
g4
ag4
ag4
ag4
ag4
ag4
ag4
ag4
ag4
ag4
ag4
ag4
ag4
ag4
ag4
ag4
ag23
ag4
ag4
ag4
ag4
ag23
ag23
ag23
ag4
ag23
ag4
ag4
ag4
ag4
ag4
ag4
ag4
ag4
ag4
ag4
ag4
ag4
ag4
ag4
ag4
ag4
ag4
ag4
ag4
ag4
ag4
ag4
ag4
ag4
aa(lp35
g4
ag4
ag4
ag4
ag4
ag4
ag4
ag4
ag4
ag4
ag4
ag4
ag4
ag4
ag4
ag4
ag4
ag4
ag23
ag23
ag20
ag4
ag4
ag23
ag23
ag4
ag4
ag4
ag4
ag4
ag4
ag4
ag4
ag4
ag4
ag4
ag4
ag4
ag4
ag4
ag4
ag4
ag4
ag4
ag4
ag4
ag4
ag4
ag4
ag4
aa(lp36
g4
ag4
ag4
ag4
ag4
ag4
ag4
ag4
ag4
ag4
ag4
ag4
ag4
ag4
ag4
ag4
ag23
ag4
ag20
ag20
ag23
ag4
ag4
ag23
ag4
ag23
ag23
ag23
ag20
ag4
ag4
ag4
ag4
ag4
ag4
ag4
ag4
ag4
ag4
ag4
ag4
ag4
ag4
ag4
ag4
ag4
ag4
ag4
ag4
ag4
aa(lp37
g4
ag4
ag4
ag4
ag4
ag4
ag4
ag4
ag4
ag4
ag4
ag4
ag23
ag4
ag4
ag23
ag23
ag4
ag20
ag20
ag20
ag4
ag4
ag4
ag4
ag20
ag23
ag20
ag23
ag20
ag4
ag4
ag4
ag23
ag20
ag4
ag4
ag4
ag4
ag4
ag4
ag4
ag4
ag4
ag4
ag4
ag4
ag4
ag4
ag4
aa(lp38
g4
ag4
ag4
ag4
ag4
ag4
ag4
ag4
ag4
ag4
ag4
ag4
ag4
ag23
ag4
ag4
ag4
ag4
ag23
ag20
ag20
ag23
ag23
ag20
ag20
ag23
ag23
ag23
ag23
ag23
ag23
ag20
ag4
ag23
ag20
ag4
ag4
ag4
ag4
ag4
ag4
ag4
ag4
ag4
ag4
ag4
ag4
ag4
ag4
ag4
aa(lp39
g4
ag4
ag4
ag4
ag4
ag4
ag4
ag4
ag4
ag4
ag4
ag4
ag4
ag4
ag4
ag4
ag4
ag4
ag4
ag23
ag4
ag4
ag23
ag23
ag20
ag20
ag20
ag23
ag20
ag20
ag23
ag20
ag4
ag4
ag4
ag4
ag4
ag4
ag4
ag4
ag4
ag4
ag4
ag4
ag4
ag4
ag4
ag4
ag4
ag4
aa(lp40
g4
ag4
ag4
ag4
ag4
ag4
ag4
ag4
ag4
ag4
ag4
ag4
ag4
ag4
ag4
ag4
ag4
ag4
ag4
ag4
ag4
ag4
ag4
ag4
ag4
ag4
ag4
ag23
ag23
ag20
ag23
ag23
ag4
ag23
ag23
ag20
ag4
ag4
ag4
ag4
ag4
ag4
ag4
ag4
ag4
ag4
ag4
ag4
ag4
ag4
aa(lp41
g4
ag4
ag4
ag4
ag4
ag4
ag4
ag4
ag4
ag4
ag4
ag4
ag4
ag4
ag4
ag4
ag4
ag4
ag4
ag4
ag4
ag4
ag4
ag4
ag23
ag20
ag23
ag20
ag4
ag4
ag4
ag4
ag4
ag23
ag20
ag20
ag4
ag4
ag4
ag4
ag4
ag4
ag4
ag4
ag4
ag4
ag4
ag4
ag4
ag4
aa(lp42
g4
ag4
ag4
ag4
ag4
ag4
ag4
ag4
ag4
ag4
ag4
ag4
ag4
ag4
ag4
ag4
ag4
ag4
ag4
ag4
ag4
ag4
ag4
ag4
ag20
ag23
ag20
ag20
ag4
ag4
ag4
ag4
ag4
ag4
ag23
ag23
ag4
ag4
ag4
ag4
ag4
ag4
ag4
ag4
ag4
ag4
ag4
ag4
ag4
ag4
aa(lp43
g4
ag4
ag4
ag4
ag4
ag4
ag4
ag4
ag4
ag4
ag4
ag4
ag4
ag4
ag4
ag4
ag4
ag4
ag4
ag4
ag4
ag4
ag4
ag4
ag23
ag20
ag20
ag20
ag4
ag4
ag4
ag4
ag4
ag4
ag4
ag20
ag23
ag4
ag4
ag4
ag4
ag4
ag4
ag4
ag4
ag4
ag4
ag4
ag4
ag4
aa(lp44
g4
ag4
ag4
ag4
ag4
ag4
ag4
ag4
ag4
ag4
ag4
ag4
ag4
ag4
ag4
ag4
ag4
ag4
ag4
ag4
ag4
ag4
ag4
ag4
ag4
ag20
ag4
ag4
ag4
ag4
ag4
ag23
ag20
ag4
ag4
ag4
ag4
ag4
ag4
ag4
ag4
ag4
ag4
ag4
ag4
ag4
ag4
ag4
ag4
ag4
aa(lp45
g4
ag4
ag4
ag4
ag4
ag4
ag4
ag4
ag4
ag4
ag4
ag4
ag4
ag4
ag4
ag4
ag4
ag4
ag4
ag4
ag4
ag4
ag4
ag4
ag4
ag4
ag4
ag4
ag4
ag4
ag4
ag20
aS'herbe'
p46
ag4
ag4
ag4
ag4
ag4
ag4
ag4
ag4
ag4
ag4
ag4
ag4
ag4
ag4
ag4
ag4
ag4
aa(lp47
g4
ag4
ag4
ag4
ag4
ag4
ag4
ag4
ag4
ag4
ag4
ag4
ag4
ag4
ag4
ag4
ag4
ag4
ag4
ag4
ag4
ag4
ag4
ag4
ag4
ag4
ag4
ag4
ag4
ag4
ag4
ag4
ag4
ag4
ag4
ag4
ag4
ag4
ag4
ag4
ag4
ag4
ag4
ag4
ag4
ag4
ag4
ag4
ag4
ag4
aa(lp48
g4
ag4
ag4
ag4
ag4
ag4
ag4
ag4
ag4
ag4
ag4
ag4
ag4
ag4
ag4
ag4
ag4
ag4
ag4
ag4
ag4
ag4
ag4
ag4
ag4
ag4
ag4
ag4
ag4
ag4
ag4
ag4
ag4
ag4
ag4
ag4
ag4
ag4
ag4
ag4
ag4
ag4
ag4
ag4
ag4
ag4
ag4
ag4
ag4
ag4
aa(lp49
g4
ag4
ag4
ag4
ag4
ag4
ag4
ag4
ag4
ag4
ag4
ag4
ag4
ag4
ag4
ag4
ag4
ag4
ag4
ag4
ag4
ag4
ag4
ag4
ag4
ag4
ag4
ag4
ag4
ag4
ag4
ag4
ag4
ag4
ag4
ag4
ag4
ag4
ag4
ag4
ag4
ag4
ag4
ag4
ag4
ag4
ag4
ag4
ag4
ag4
aa(lp50
g4
ag4
ag4
ag4
ag4
ag4
ag4
ag4
ag4
ag4
ag4
ag4
ag4
ag4
ag4
ag4
ag4
ag4
ag4
ag4
ag4
ag4
ag4
ag4
ag4
ag4
ag4
ag4
ag4
ag4
ag4
ag4
ag4
ag4
ag4
ag4
ag4
ag4
ag4
ag4
ag4
ag4
ag4
ag4
ag4
ag4
ag4
ag4
ag4
ag4
aa(lp51
g4
ag4
ag4
ag4
ag4
ag4
ag4
ag4
ag4
ag4
ag4
ag4
ag4
ag4
ag4
ag4
ag4
ag4
ag4
ag4
ag4
ag4
ag4
ag4
ag4
ag4
ag4
ag4
ag4
ag4
ag4
ag4
ag4
ag4
ag4
ag4
ag4
ag4
ag4
ag4
ag4
ag4
ag4
ag4
ag4
ag4
ag4
ag4
ag4
ag4
aa(lp52
g4
ag4
ag4
ag4
ag4
ag4
ag4
ag4
ag4
ag4
ag4
ag4
ag4
ag4
ag4
ag4
ag4
ag4
ag4
ag4
ag4
ag4
ag4
ag4
ag4
ag4
ag4
ag4
ag4
ag4
ag4
ag4
ag4
ag4
ag4
ag4
ag4
ag4
ag4
ag4
ag4
ag4
ag4
ag4
ag4
ag4
ag4
ag4
ag4
ag4
aa(lp53
g4
ag4
ag4
ag4
ag4
ag4
ag4
ag4
ag4
ag4
ag4
ag4
ag4
ag4
ag4
ag4
ag4
ag4
ag4
ag4
ag4
ag4
ag4
ag4
ag4
ag4
ag4
ag4
ag4
ag4
ag4
ag4
ag4
ag4
ag4
ag4
ag4
ag4
ag4
ag4
ag4
ag4
ag4
ag4
ag4
ag4
ag4
ag4
ag4
ag4
aa(lp54
g4
ag4
ag4
ag4
ag4
ag4
ag4
ag4
ag4
ag4
ag4
ag4
ag4
ag4
ag4
ag4
ag4
ag4
ag4
ag4
ag4
ag4
ag4
ag4
ag4
ag4
ag4
ag4
ag4
ag4
ag4
ag4
ag4
ag4
ag4
ag4
ag4
ag4
ag4
ag4
ag4
ag4
ag4
ag4
ag4
ag4
ag4
ag4
ag4
ag4
aa(lp55
g4
ag4
ag4
ag4
ag4
ag4
ag4
ag4
ag4
ag4
ag4
ag4
ag4
ag4
ag4
ag4
ag4
ag4
ag4
ag4
ag4
ag4
ag4
ag4
ag4
ag4
ag4
ag4
ag4
ag4
ag4
ag4
ag4
ag4
ag4
ag4
ag4
ag4
ag4
ag4
ag4
ag4
ag4
ag4
ag4
ag4
ag4
ag4
ag4
ag4
aa(lp56
g4
ag4
ag4
ag4
ag4
ag4
ag4
ag4
ag4
ag4
ag4
ag4
ag4
ag4
ag4
ag4
ag4
ag4
ag4
ag4
ag4
ag4
ag4
ag4
ag4
ag4
ag4
ag4
ag4
ag4
ag4
ag4
ag4
ag4
ag4
ag4
ag4
ag4
ag4
ag4
ag4
ag4
ag4
ag4
ag4
ag4
ag4
ag4
ag4
ag4
aa(lp57
g4
ag4
ag4
ag4
ag4
ag4
ag4
ag4
ag4
ag4
ag4
ag4
ag4
ag4
ag4
ag4
ag4
ag4
ag4
ag4
ag4
ag4
ag4
ag4
ag4
ag4
ag4
ag4
ag4
ag4
ag4
ag4
ag4
ag4
ag4
ag4
ag4
ag4
ag4
ag4
ag4
ag4
ag4
ag4
ag4
ag4
ag4
ag4
ag4
ag4
aa(lp58
g4
ag4
ag4
ag4
ag4
ag4
ag4
ag4
ag4
ag4
ag4
ag4
ag4
ag4
ag4
ag4
ag4
ag4
ag4
ag4
ag4
ag4
ag4
ag4
ag4
ag4
ag4
ag4
ag4
ag4
ag4
ag4
ag4
ag4
ag4
ag4
ag4
ag4
ag4
ag4
ag4
ag4
ag4
ag4
ag4
ag4
ag4
ag4
ag4
ag4
aa(lp59
g4
ag4
ag4
ag4
ag4
ag4
ag4
ag4
ag4
ag4
ag4
ag4
ag4
ag4
ag4
ag4
ag4
ag4
ag4
ag4
ag4
ag4
ag4
ag4
ag4
ag4
ag4
ag4
ag4
ag4
ag4
ag4
ag4
ag4
ag4
ag4
ag4
ag4
ag4
ag4
ag4
ag4
ag4
ag4
ag4
ag4
ag4
ag3
ag3
ag3
aa(lp60
g4
ag4
ag4
ag4
ag4
ag4
ag4
ag4
ag4
ag4
ag4
ag4
ag4
ag4
ag4
ag4
ag4
ag4
ag4
ag4
ag4
ag4
ag4
ag4
ag4
ag4
ag4
ag4
ag4
ag4
ag4
ag4
ag4
ag4
ag4
ag4
ag4
ag4
ag4
ag4
ag4
ag4
ag4
ag4
ag4
ag4
ag4
ag3
ag3
ag3
aa(lp61
g5
ag5
ag5
ag5
ag5
ag4
ag4
ag4
ag4
ag4
ag4
ag4
ag4
ag4
ag4
ag4
ag4
ag4
ag4
ag4
ag4
ag4
ag4
ag4
ag4
ag4
ag4
ag4
ag4
ag4
ag4
ag4
ag4
ag4
ag4
ag4
ag4
ag4
ag4
ag4
ag4
ag4
ag4
ag4
ag4
ag4
ag4
ag3
ag3
ag3
aaa(lp62
(lp63
S''
p64
ag64
ag64
ag64
ag64
aS'arbre'
p65
ag65
ag65
ag65
ag65
ag65
ag65
ag65
ag65
ag65
ag65
ag65
ag65
ag65
ag65
ag65
ag65
ag65
ag65
ag65
ag65
ag65
ag65
ag65
ag65
ag65
ag65
ag65
ag65
ag65
ag65
ag65
ag65
ag65
ag65
ag65
ag65
ag65
ag65
ag65
ag65
ag65
ag65
aS'arbre'
p66
ag66
aa(lp67
g64
aS'porte'
p68
ag64
ag64
ag64
ag65
ag65
ag65
ag65
ag65
ag65
ag65
ag65
ag65
ag65
ag65
ag65
ag65
ag65
ag65
ag65
ag65
ag65
ag65
ag65
ag65
ag65
ag65
ag65
ag65
ag65
ag65
ag65
ag65
ag65
ag65
ag65
ag65
ag65
ag65
ag65
ag65
ag65
ag65
ag65
ag65
ag65
ag65
ag66
ag66
aa(lp69
g64
ag64
aS'coffre'
p70
ag64
ag64
ag64
ag64
ag64
ag64
ag64
ag65
ag65
ag64
ag65
ag64
ag65
ag64
ag64
ag64
ag65
ag65
ag64
ag65
ag64
ag65
ag65
ag65
ag65
ag64
ag64
ag64
ag64
ag64
ag64
ag64
ag64
ag64
ag64
ag64
aS'arbre'
p71
ag64
ag64
ag65
ag65
ag64
ag64
ag64
ag64
ag66
ag66
aa(lp72
g64
ag64
ag64
aS'ennemi'
p73
ag64
ag64
ag64
ag64
ag64
ag64
ag64
ag64
ag64
ag64
ag64
ag64
ag64
ag64
ag64
ag64
ag64
ag64
ag65
ag65
ag64
ag64
ag65
ag64
ag64
ag64
ag71
ag64
ag64
ag65
ag65
ag64
ag64
ag65
ag64
ag64
ag64
ag64
ag65
ag65
ag64
ag64
ag64
ag64
ag66
ag66
aa(lp74
g64
ag64
ag64
ag64
ag64
ag64
ag64
ag64
ag64
ag65
ag65
ag65
ag64
ag64
ag64
ag64
ag64
ag64
ag64
ag64
ag65
ag65
ag65
ag65
ag64
ag64
ag65
ag64
ag64
ag64
ag71
ag64
ag64
ag65
ag65
ag64
ag64
ag64
ag65
ag64
ag71
ag64
ag65
ag64
ag64
ag64
ag64
ag64
ag66
ag66
aa(lp75
g66
ag66
ag64
ag64
ag65
ag64
ag64
ag64
ag64
ag64
ag65
ag64
ag65
ag64
ag64
ag64
ag64
ag65
ag65
ag65
ag65
ag64
ag65
ag65
ag65
ag65
ag64
ag64
ag64
ag64
ag64
ag64
ag64
ag64
ag64
ag64
ag64
ag64
ag64
ag64
ag64
ag64
ag64
ag65
ag65
ag64
ag65
ag65
ag66
ag66
aa(lp76
g66
ag66
ag64
ag64
ag64
ag64
ag65
ag64
ag65
ag64
ag64
ag64
ag64
ag64
ag64
ag65
ag65
ag65
ag65
ag65
ag64
ag64
ag64
ag64
ag64
ag64
ag64
ag64
ag64
ag64
ag64
ag65
ag65
ag64
ag65
ag64
ag64
ag64
ag65
ag65
ag64
ag64
ag64
ag64
ag64
ag64
ag64
ag65
ag65
ag66
aa(lp77
g66
ag66
ag64
ag64
ag64
ag64
ag65
ag65
ag65
ag64
ag64
ag64
ag64
ag64
ag64
ag65
ag65
ag64
ag64
ag64
ag64
ag64
ag64
ag64
ag65
ag65
ag65
ag65
ag64
ag64
ag64
ag65
ag65
ag64
ag64
ag64
ag65
ag65
ag64
ag65
ag65
ag65
ag65
ag64
ag64
ag64
ag64
ag65
ag65
ag66
aa(lp78
g66
ag66
ag64
ag65
ag64
ag65
ag64
ag64
ag64
ag64
ag64
ag64
ag64
ag64
ag64
ag64
ag65
ag65
ag64
ag64
ag64
ag64
ag64
ag64
ag65
ag65
ag65
ag65
ag64
ag64
ag64
ag64
ag64
ag64
ag64
ag64
ag64
ag65
ag64
ag65
ag65
ag65
ag65
ag65
ag65
ag64
ag64
ag64
ag66
ag66
aa(lp79
g66
ag66
ag64
ag65
ag65
ag65
ag64
ag64
ag65
ag65
ag65
ag65
ag65
ag65
ag64
ag64
ag64
ag64
ag64
ag64
ag65
ag65
ag64
ag65
ag65
ag64
ag71
ag64
ag64
ag64
ag64
ag64
ag65
ag64
ag64
ag65
ag65
ag65
ag71
ag64
ag64
ag64
ag64
ag65
ag64
ag64
ag64
ag64
ag66
ag66
aa(lp80
g66
ag66
ag64
ag64
ag64
ag65
ag64
ag64
ag64
ag64
ag71
ag64
ag64
ag64
ag64
ag64
ag64
ag65
ag64
ag65
ag64
ag64
ag64
ag65
ag65
ag64
ag64
ag64
ag64
ag65
ag65
ag65
ag64
ag64
ag64
ag64
ag64
ag64
ag64
ag64
ag64
ag64
ag64
ag65
ag65
ag64
ag64
ag64
ag66
ag66
aa(lp81
g66
ag66
ag64
ag64
ag64
ag65
ag64
ag71
ag64
ag64
ag64
ag64
ag64
ag64
ag64
ag71
ag64
ag64
ag64
ag64
ag64
ag64
ag64
ag64
ag65
ag64
ag64
ag64
ag64
ag65
ag65
ag64
ag64
ag64
ag64
ag64
ag64
ag64
ag64
ag64
ag71
ag64
ag71
ag65
ag65
ag64
ag65
ag64
ag66
ag66
aa(lp82
g66
ag66
ag64
ag64
ag64
ag64
ag64
ag64
ag64
ag64
ag65
ag65
ag64
ag64
ag64
ag64
ag64
ag71
ag64
ag65
ag64
ag64
ag64
ag64
ag64
ag64
ag64
ag64
ag64
ag64
ag65
ag64
ag64
ag65
ag65
ag64
ag64
ag65
ag64
ag64
ag64
ag64
ag64
ag65
ag65
ag64
ag64
ag64
ag66
ag66
aa(lp83
g66
ag66
ag64
ag64
ag65
ag64
ag64
ag64
ag65
ag64
ag65
ag65
ag64
ag64
ag64
ag64
ag64
ag64
ag64
ag64
ag64
ag64
ag64
ag64
ag64
ag71
ag64
ag65
ag65
ag65
ag65
ag64
ag64
ag65
ag65
ag65
ag65
ag64
ag64
ag64
ag64
ag71
ag71
ag64
ag64
ag65
ag64
ag65
ag66
ag66
aa(lp84
g66
ag66
ag64
ag65
ag65
ag64
ag64
ag65
ag64
ag64
ag64
ag65
ag64
ag64
ag64
ag64
ag64
ag64
ag64
ag64
ag65
ag65
ag65
ag64
ag64
ag64
ag64
ag65
ag65
ag64
ag65
ag64
ag64
ag64
ag64
ag64
ag64
ag65
ag64
ag64
ag65
ag65
ag64
ag64
ag64
ag64
ag64
ag65
ag66
ag66
aa(lp85
g66
ag66
ag64
ag64
ag65
ag64
ag64
ag65
ag64
ag64
ag64
ag64
ag64
ag64
ag64
ag71
ag64
ag64
ag64
ag64
ag65
ag65
ag65
ag64
ag65
ag65
ag65
ag64
ag64
ag64
ag64
ag64
ag64
ag65
ag65
ag65
ag64
ag65
ag65
ag64
ag65
ag65
ag64
ag64
ag65
ag65
ag65
ag64
ag66
ag66
aa(lp86
g66
ag66
ag64
ag64
ag65
ag65
ag64
ag64
ag64
ag64
ag64
ag64
ag64
ag64
ag64
ag64
ag64
ag64
ag64
ag64
ag64
ag64
ag64
ag64
ag64
ag64
ag64
ag64
ag64
ag64
ag64
ag64
ag64
ag65
ag65
ag65
ag64
ag64
ag65
ag64
ag64
ag64
ag64
ag64
ag65
ag65
ag65
ag64
ag66
ag66
aa(lp87
g66
ag66
ag64
ag65
ag64
ag64
ag65
ag64
ag64
ag64
ag64
ag64
ag64
ag64
ag64
ag64
ag64
ag64
ag64
ag64
ag64
ag64
ag64
ag64
ag64
ag64
ag64
ag65
ag65
ag64
ag64
ag64
ag64
ag64
ag64
ag64
ag64
ag64
ag65
ag65
ag64
ag64
ag64
ag64
ag64
ag64
ag64
ag64
ag66
ag66
aa(lp88
g66
ag66
ag64
ag64
ag64
ag64
ag65
ag65
ag65
ag64
ag64
ag64
ag64
ag64
ag64
ag64
ag64
ag64
ag64
ag64
ag64
ag64
ag64
ag64
ag64
ag64
ag64
ag64
ag65
ag64
ag64
ag65
ag65
ag64
ag64
ag64
ag64
ag64
ag65
ag65
ag64
ag64
ag64
ag65
ag64
ag65
ag65
ag65
ag66
ag66
aa(lp89
g66
ag66
ag64
ag64
ag65
ag65
ag65
ag64
ag65
ag64
ag64
ag64
aS'arbre'
p90
ag90
ag64
ag64
ag64
ag64
ag64
ag64
ag64
ag64
ag64
ag64
ag64
ag64
ag65
ag64
ag65
ag64
ag64
ag65
ag65
ag64
ag64
ag64
ag64
ag64
ag64
ag65
ag65
ag65
ag64
ag64
ag64
ag65
ag64
ag65
ag66
ag66
aa(lp91
g66
ag66
ag64
ag64
ag64
ag64
ag64
ag65
ag64
ag64
ag64
ag64
ag64
ag64
ag64
ag64
ag64
ag64
ag64
ag64
ag64
ag64
ag64
ag64
ag64
ag64
ag64
ag64
ag64
ag64
ag64
ag64
ag65
ag64
ag64
ag65
ag65
ag64
ag65
ag64
ag64
ag64
ag64
ag64
ag64
ag65
ag64
ag65
ag66
ag66
aa(lp92
g66
ag66
ag64
ag64
ag65
ag64
ag64
ag64
ag64
ag64
ag64
ag64
ag64
ag64
ag64
ag64
ag64
ag90
ag64
ag64
ag64
ag64
ag64
ag64
ag64
ag64
ag64
ag64
ag64
ag64
ag64
ag64
ag64
ag64
ag64
ag65
ag64
ag65
ag65
ag64
ag64
ag64
ag64
ag64
ag64
ag64
ag64
ag64
ag66
ag66
aa(lp93
g66
ag66
ag64
ag64
ag64
ag65
ag64
ag64
ag65
ag64
ag64
ag64
ag64
ag64
ag64
ag64
ag64
ag64
ag90
ag64
ag64
ag64
ag64
ag64
ag64
ag64
ag64
ag64
ag64
ag64
ag64
ag64
ag64
ag64
ag64
ag64
ag64
ag64
ag65
ag65
ag64
ag65
ag65
ag64
ag65
ag65
ag64
ag64
ag66
ag66
aa(lp94
g66
ag66
ag64
ag64
ag65
ag64
ag64
ag64
ag64
ag65
ag64
ag90
ag64
ag64
ag64
ag64
ag64
ag64
ag64
ag64
ag64
ag64
ag64
ag64
ag64
ag64
ag64
ag64
ag64
ag64
ag65
ag64
ag64
ag64
ag64
ag65
ag65
ag65
ag64
ag65
ag64
ag64
ag65
ag64
ag65
ag65
ag64
ag64
ag66
ag66
aa(lp95
g66
ag66
ag65
ag64
ag64
ag64
ag64
ag65
ag64
ag64
ag64
ag64
ag64
ag90
ag64
ag64
ag64
ag64
ag64
ag64
ag64
ag64
ag64
ag64
ag64
ag64
ag64
ag64
ag64
ag65
ag65
ag65
ag64
ag65
ag64
ag64
ag64
ag64
ag64
ag64
ag64
ag64
ag64
ag65
ag64
ag64
ag64
ag64
ag66
ag66
aa(lp96
g66
ag66
ag65
ag64
ag64
ag64
ag65
ag64
ag64
ag65
ag64
ag64
ag64
ag90
ag64
ag64
ag64
ag64
ag64
ag64
ag64
ag90
ag64
ag64
ag64
ag64
ag64
ag64
ag64
ag65
ag65
ag65
ag64
ag65
ag64
ag64
ag65
ag64
ag65
ag65
ag64
ag65
ag64
ag64
ag64
ag64
ag64
ag64
ag66
ag66
aa(lp97
g66
ag66
ag64
ag64
ag64
ag64
ag64
ag64
ag64
ag65
ag64
ag64
ag64
ag64
ag64
ag64
ag64
ag90
ag64
ag64
ag64
ag64
ag64
ag64
ag64
ag64
ag64
ag64
ag64
ag64
ag64
ag64
ag64
ag64
ag64
ag64
ag65
ag64
ag64
ag65
ag64
ag64
ag65
ag65
ag64
ag64
ag65
ag65
ag66
ag66
aa(lp98
g66
ag66
ag64
ag64
ag65
ag65
ag64
ag64
ag65
ag65
ag64
ag64
ag64
ag64
ag64
ag64
ag64
ag64
ag64
ag64
ag64
ag64
ag64
ag64
ag64
ag64
ag64
ag64
ag64
ag64
ag64
ag64
ag64
ag64
ag64
ag64
ag65
ag64
ag64
ag64
ag64
ag64
ag64
ag64
ag64
ag64
ag65
ag64
ag66
ag66
aa(lp99
g66
ag66
ag64
ag64
ag64
ag65
ag64
ag64
ag64
ag64
ag64
ag64
ag64
ag64
ag64
ag90
ag64
ag64
ag64
ag64
ag64
ag64
ag64
ag64
ag64
ag64
ag64
ag64
ag64
ag64
ag64
ag64
ag64
ag64
ag64
ag64
ag65
ag64
ag65
ag65
ag64
ag65
ag64
ag65
ag64
ag65
ag65
ag64
ag66
ag66
aa(lp100
g66
ag65
ag65
ag65
ag64
ag64
ag64
ag64
ag64
ag64
ag64
ag64
ag64
ag64
ag64
ag64
ag64
ag90
ag64
ag64
ag64
ag90
ag64
ag64
ag64
ag64
ag64
ag64
ag64
ag64
ag64
ag64
ag64
ag64
ag64
ag64
ag65
ag64
ag64
ag65
ag64
ag64
ag65
ag65
ag64
ag65
ag65
ag64
ag66
ag66
aa(lp101
g66
ag65
ag65
ag65
ag64
ag71
ag64
ag65
ag65
ag64
ag65
ag64
ag65
ag65
ag65
ag64
ag64
ag64
ag64
ag64
ag90
ag64
ag64
ag64
ag64
ag64
ag64
ag64
ag64
ag64
ag64
ag64
ag64
ag64
ag64
ag64
ag65
ag64
ag65
ag65
ag64
ag64
ag65
ag64
ag64
ag64
ag64
ag64
ag66
ag66
aa(lp102
g66
ag65
ag64
ag64
ag64
ag64
ag64
ag64
ag64
ag65
ag65
ag65
ag65
ag65
ag64
ag65
ag65
ag65
ag65
ag64
ag64
ag64
ag64
ag64
ag64
ag64
ag64
aS'arbre'
p103
ag64
ag64
ag64
ag64
ag64
ag64
ag64
ag64
ag65
ag65
ag65
ag64
ag64
ag64
ag64
ag64
ag64
ag64
ag64
ag64
ag66
ag66
aa(lp104
g66
ag65
ag65
ag65
ag64
ag103
ag64
ag64
ag65
ag65
ag65
ag64
ag65
ag65
ag65
ag65
ag65
ag64
ag65
ag65
ag64
ag65
ag64
ag64
ag64
ag64
ag64
ag64
ag64
ag64
ag103
ag64
ag64
ag64
ag64
ag64
ag64
ag64
ag65
ag65
ag65
ag64
ag64
ag64
ag64
ag65
ag64
ag65
ag66
ag66
aa(lp105
g66
ag65
ag65
ag65
ag64
ag64
ag64
ag64
ag64
ag65
ag64
ag64
ag64
ag65
ag64
ag64
ag64
ag64
ag64
ag65
ag64
ag64
ag64
ag64
ag64
ag64
ag64
ag64
ag65
ag64
ag64
ag64
ag64
ag103
ag64
ag64
ag65
ag65
ag65
ag65
ag64
ag64
ag64
ag64
ag64
ag65
ag65
ag65
ag66
ag66
aa(lp106
g66
ag65
ag65
ag64
ag64
ag64
ag64
ag64
ag64
ag65
ag64
ag64
ag64
ag64
ag64
ag64
ag64
ag64
ag64
ag65
ag65
ag65
ag64
ag64
ag64
ag64
ag64
ag64
ag64
ag64
ag64
ag64
ag65
ag64
ag64
ag64
ag64
ag64
ag64
ag64
ag64
ag64
ag64
ag64
ag64
ag64
ag64
ag64
ag66
ag66
aa(lp107
g66
ag66
ag64
ag64
ag71
ag64
ag64
ag64
ag64
ag64
ag64
ag65
ag64
ag64
ag64
ag65
ag64
ag64
ag64
ag64
ag64
ag64
ag64
ag64
ag65
ag65
ag65
ag64
ag64
ag65
ag64
ag64
ag65
ag64
ag64
ag64
ag65
ag65
ag64
ag64
ag64
ag64
ag64
ag65
ag64
ag64
ag64
ag64
ag66
ag66
aa(lp108
g66
ag66
ag64
ag64
ag64
ag64
ag71
ag64
ag64
ag64
ag64
ag64
ag65
ag64
ag65
ag64
ag64
ag64
ag64
ag64
ag64
ag64
ag64
ag65
ag65
ag64
ag65
ag64
ag64
ag64
ag64
ag65
ag65
ag64
ag103
ag64
ag65
ag65
ag64
ag64
ag65
ag65
ag64
ag64
ag65
ag64
ag64
ag65
ag66
ag66
aa(lp109
g66
ag66
ag64
ag71
ag64
ag64
ag65
ag103
ag65
ag65
ag64
ag64
ag64
ag64
ag64
ag65
ag65
ag64
ag65
ag65
ag65
ag64
ag64
ag65
ag64
ag64
ag65
ag64
ag64
ag64
ag64
ag65
ag65
ag64
ag64
ag64
ag64
ag64
ag64
ag64
ag64
ag65
ag64
ag64
ag65
ag65
ag65
ag65
ag66
ag66
aa(lp110
g66
ag66
ag64
ag65
ag65
ag64
ag65
ag64
ag65
ag65
ag65
ag64
ag64
ag64
ag64
ag65
ag65
ag64
ag65
ag65
ag65
ag64
ag64
ag64
ag64
ag64
ag64
ag65
ag65
ag64
ag65
ag65
ag65
ag64
ag64
ag64
ag64
ag64
ag64
ag64
ag65
ag65
ag64
ag64
ag64
ag64
ag64
ag64
ag66
ag66
aa(lp111
g66
ag66
ag64
ag65
ag64
ag64
ag103
ag64
ag64
ag64
ag65
ag65
ag64
ag64
ag64
ag65
ag65
ag64
ag64
ag64
ag64
ag64
ag64
ag65
ag64
ag64
ag64
ag65
ag65
ag64
ag65
ag64
ag64
ag65
ag65
ag64
ag64
ag64
ag64
ag64
ag64
ag64
ag65
ag64
ag65
ag64
ag65
ag64
ag66
ag66
aa(lp112
g66
ag66
ag64
ag64
ag103
ag64
ag64
ag64
ag64
ag64
ag64
ag65
ag64
ag65
ag64
ag65
ag65
ag103
ag64
ag64
ag64
ag64
ag64
ag64
ag64
ag65
ag64
ag64
ag64
ag64
ag64
ag64
ag64
ag65
ag65
ag65
ag65
ag64
ag71
ag64
ag64
ag65
ag65
ag64
ag64
ag64
ag65
ag64
ag66
ag66
aa(lp113
g66
ag66
ag64
ag64
ag65
ag64
ag64
ag64
ag71
ag64
ag64
ag65
ag65
ag65
ag103
ag64
ag64
ag64
ag64
ag64
ag103
ag64
ag103
ag65
ag64
ag65
ag64
ag64
ag64
ag64
ag64
ag65
ag64
ag64
ag64
ag65
ag65
ag65
ag71
ag64
ag71
ag64
ag64
ag64
ag64
ag65
ag65
ag64
ag66
ag66
aa(lp114
g66
ag66
ag64
ag64
ag64
ag64
ag64
ag65
ag64
ag64
ag103
ag64
ag65
ag65
ag64
ag64
ag64
ag64
ag64
ag103
ag64
ag64
ag64
ag64
ag64
ag64
ag64
ag64
ag64
ag65
ag65
ag64
ag64
ag65
ag65
ag65
ag64
ag65
ag64
ag64
ag64
ag64
ag64
ag65
ag64
ag64
ag64
ag64
ag66
ag66
aa(lp115
g66
ag66
ag64
ag71
ag64
ag64
ag64
ag64
ag64
ag64
ag71
ag64
ag64
ag64
ag64
ag64
ag103
ag64
ag64
ag64
ag65
ag64
ag103
ag64
ag65
ag64
ag64
ag64
ag65
ag64
ag64
ag64
ag64
ag64
ag64
ag65
ag65
ag65
ag64
ag64
ag64
ag65
ag65
ag65
ag65
ag64
ag65
ag64
ag66
ag66
aa(lp116
g66
ag66
ag64
ag64
ag64
ag65
ag64
ag64
ag64
ag64
ag64
ag64
ag64
ag64
ag65
ag65
ag65
ag64
ag103
ag64
ag64
ag64
ag64
ag64
ag65
ag64
ag65
ag64
ag64
ag64
ag64
ag64
ag64
ag64
ag64
ag64
ag64
ag65
ag64
ag71
ag64
ag64
ag64
ag64
ag65
ag64
ag65
ag64
ag66
ag66
aa(lp117
g66
ag66
ag64
ag64
ag65
ag65
ag65
ag64
ag65
ag64
ag65
ag103
ag64
ag103
ag64
ag64
ag71
ag64
ag64
ag64
ag103
ag103
ag64
ag64
ag65
ag64
ag64
ag64
ag64
ag64
ag65
ag65
ag65
ag65
ag64
ag64
ag64
ag64
ag64
ag64
ag64
ag64
ag64
ag65
ag64
ag64
ag64
ag64
ag66
ag66
aa(lp118
g66
ag66
ag71
ag64
ag64
ag65
ag64
ag65
ag65
ag65
ag65
ag64
ag64
ag64
ag64
ag64
ag64
ag64
ag64
ag71
ag64
ag64
ag64
ag64
ag64
ag64
ag64
ag65
ag64
ag64
ag64
ag64
ag64
ag64
ag64
ag64
ag71
ag64
ag64
ag64
ag64
ag64
ag64
ag64
ag64
ag64
ag64
ag64
ag66
ag66
aa(lp119
g66
ag66
ag64
ag64
ag64
ag64
ag64
ag64
ag64
ag64
ag64
ag64
ag64
ag71
ag64
ag64
ag64
ag64
ag64
ag64
ag64
ag64
ag64
ag64
ag64
ag64
ag64
ag64
ag64
ag64
ag64
ag64
ag64
ag64
ag64
ag64
ag64
ag64
ag65
ag65
ag65
ag65
ag64
ag64
ag64
ag64
ag64
aS'porte'
p120
ag64
ag64
aa(lp121
g66
ag66
ag66
ag66
ag66
ag66
ag66
ag66
ag66
ag66
ag66
ag66
ag66
ag66
ag66
ag66
ag66
ag66
ag66
ag66
ag66
ag66
ag66
ag66
ag66
ag66
ag66
ag66
ag66
ag66
ag66
ag66
ag66
ag66
ag66
ag66
ag66
ag66
ag66
ag66
ag66
ag66
ag66
ag66
ag66
ag66
ag66
ag64
ag64
ag64
aa(lp122
g66
ag66
ag66
ag66
ag66
ag66
ag66
ag66
ag66
ag66
ag66
ag66
ag66
ag66
ag66
ag66
ag66
ag66
ag66
ag66
ag66
ag66
ag66
ag66
ag66
ag66
ag66
ag66
ag66
ag66
ag66
ag66
ag66
ag66
ag66
ag66
ag66
ag66
ag66
ag66
ag66
ag66
ag66
ag66
ag66
ag66
ag66
ag64
ag64
ag64
aaa.