(lp0
(lp1
(lp2
S'murs'
p3
ag3
ag3
ag3
ag3
ag3
ag3
ag3
ag3
ag3
ag3
ag3
ag3
ag3
ag3
ag3
ag3
ag3
ag3
ag3
ag3
ag3
ag3
ag3
ag3
ag3
ag3
ag3
ag3
ag3
ag3
ag3
ag3
ag3
ag3
ag3
ag3
ag3
ag3
ag3
ag3
ag3
ag3
ag3
ag3
ag3
ag3
ag3
ag3
ag3
aa(lp4
g3
ag3
ag3
ag3
ag3
ag3
ag3
ag3
ag3
ag3
ag3
ag3
ag3
ag3
ag3
ag3
ag3
ag3
ag3
ag3
ag3
ag3
ag3
ag3
ag3
ag3
ag3
ag3
ag3
ag3
ag3
ag3
ag3
ag3
ag3
ag3
ag3
ag3
ag3
ag3
ag3
ag3
ag3
ag3
ag3
ag3
ag3
ag3
ag3
ag3
aa(lp5
g3
ag3
aS'sols'
p6
ag6
ag6
ag6
ag6
ag6
ag6
ag6
ag6
ag6
ag6
ag6
ag6
ag6
ag6
ag6
ag6
ag6
ag6
ag6
ag6
ag6
ag6
ag6
ag6
ag6
ag6
ag6
ag6
ag6
ag6
ag6
ag6
ag6
ag6
ag6
ag6
ag6
ag6
ag6
ag6
ag6
ag6
ag6
ag6
ag6
ag3
ag3
aa(lp7
g3
ag3
ag6
ag6
ag6
ag6
ag6
ag6
ag6
ag6
ag6
ag6
ag6
aS'sols'
p8
ag6
ag6
ag6
ag6
ag6
aS'trous'
p9
ag6
ag6
ag6
ag6
ag6
ag6
ag6
ag6
ag6
ag6
ag6
ag6
ag6
ag6
ag6
ag6
ag6
ag6
ag6
ag6
ag6
ag6
ag6
ag6
ag6
ag6
ag6
ag6
ag3
ag3
aa(lp10
g3
ag3
ag6
ag6
ag6
ag6
ag6
aS'trous'
p11
ag8
ag6
ag6
ag6
ag8
ag8
ag8
ag6
ag6
ag8
ag11
ag11
ag6
ag6
ag6
ag6
ag6
ag6
ag6
ag6
ag6
ag6
ag6
ag6
ag6
ag6
ag6
ag6
ag6
ag6
ag6
ag6
ag6
ag6
ag6
ag6
ag6
ag6
ag6
ag6
ag3
ag3
aa(lp12
g3
ag3
ag6
ag6
ag8
aS'trous'
p13
ag11
ag13
ag13
ag8
ag8
ag8
ag8
ag8
ag8
ag8
ag13
ag8
ag9
ag9
ag9
ag8
ag6
ag6
ag6
ag6
ag6
ag6
ag6
ag6
ag6
ag6
ag6
ag6
ag6
ag6
ag6
ag6
ag6
ag6
ag6
ag6
ag6
ag6
ag6
ag6
ag6
ag6
ag3
ag3
aa(lp14
g3
ag3
ag6
ag6
ag8
ag8
ag11
ag11
ag13
ag13
ag13
ag13
ag8
ag8
ag13
ag13
ag13
ag13
ag9
ag9
ag9
ag9
ag9
ag6
ag6
ag6
ag6
ag6
ag6
ag6
ag6
ag6
ag6
ag6
ag6
ag6
ag6
ag6
ag6
ag6
ag6
ag6
ag6
ag6
ag6
ag6
ag6
ag6
ag3
ag3
aa(lp15
g3
ag3
ag6
ag6
ag6
ag8
ag8
ag8
ag13
ag13
ag13
ag13
ag13
ag13
ag13
ag13
ag13
ag13
ag8
ag8
ag9
ag8
ag6
ag6
ag6
ag6
ag6
ag6
ag6
ag6
ag6
ag6
ag6
ag6
ag6
ag6
ag6
ag6
ag6
ag6
ag6
ag6
ag6
ag6
ag6
ag6
ag6
ag6
ag3
ag3
aa(lp16
g3
ag3
ag6
ag6
ag6
ag8
ag8
ag8
ag11
ag11
ag11
ag11
ag11
ag13
ag13
ag13
ag13
ag13
ag8
ag8
ag8
ag8
ag6
ag6
ag6
ag6
ag6
ag6
ag6
ag6
ag6
ag6
ag6
ag6
ag6
ag6
ag6
ag6
ag6
ag6
ag6
ag6
ag6
ag6
ag6
ag6
ag6
ag6
ag3
ag3
aa(lp17
g3
ag3
ag6
ag6
ag6
ag8
ag8
ag13
ag11
ag11
ag11
ag11
ag11
ag13
ag13
ag13
ag13
ag13
ag8
ag8
ag8
ag9
ag8
ag6
ag6
ag6
ag6
ag6
ag6
ag6
ag6
ag6
ag6
ag6
ag6
ag6
ag6
ag6
ag6
ag6
ag6
ag6
ag6
ag6
ag6
ag6
ag6
ag6
ag3
ag3
aa(lp18
g3
ag3
ag6
ag6
ag6
ag8
ag13
ag13
ag11
ag11
ag11
ag11
ag11
ag13
ag13
ag13
ag13
ag13
ag13
ag13
ag9
ag9
ag9
ag6
ag6
ag6
ag6
ag6
ag6
ag6
ag6
ag6
ag6
ag6
ag6
ag6
ag6
ag6
ag6
ag6
ag6
ag6
ag6
ag6
ag6
ag6
ag6
ag6
ag3
ag3
aa(lp19
g3
ag3
ag6
ag6
ag6
ag8
ag8
ag8
ag11
ag11
ag11
ag11
ag11
ag13
ag13
ag11
ag11
ag11
ag13
ag13
ag13
ag9
ag6
ag6
ag6
ag6
ag6
ag6
ag6
ag6
ag6
ag6
ag6
ag6
ag6
ag6
ag6
ag6
ag6
ag6
ag6
ag6
ag6
ag6
ag6
ag6
ag6
ag6
ag3
ag3
aa(lp20
g3
ag3
ag6
ag6
ag6
ag8
ag13
ag8
ag8
ag13
ag13
ag13
ag13
ag13
ag13
ag11
ag11
ag11
ag13
ag13
ag13
ag8
ag6
ag6
ag6
ag6
ag6
ag6
ag6
ag6
ag6
ag6
ag6
ag6
ag6
ag6
ag6
ag6
ag6
ag6
ag6
ag6
ag6
ag6
ag6
ag6
ag6
ag6
ag3
ag3
aa(lp21
g3
ag3
ag6
ag6
ag6
ag13
ag13
ag13
ag13
ag13
ag13
ag13
ag13
ag13
ag13
ag11
ag11
ag11
ag13
ag13
ag13
ag13
ag6
ag6
ag6
ag6
ag6
ag6
ag6
ag6
ag6
ag6
ag6
ag6
ag6
ag6
ag6
ag6
ag6
ag6
ag6
ag6
ag6
ag6
ag6
ag6
ag6
ag6
ag3
ag3
aa(lp22
g3
ag3
ag6
ag6
ag6
ag13
ag13
ag13
ag13
ag13
ag13
ag13
ag13
ag13
ag13
ag11
ag11
ag11
ag13
ag13
ag13
ag13
ag6
ag6
ag6
ag6
ag6
ag6
ag6
ag6
ag6
ag6
ag6
ag6
ag6
ag6
ag6
ag6
ag6
ag6
ag6
ag6
ag6
ag6
ag6
ag6
ag6
ag6
ag3
ag3
aa(lp23
g3
ag3
ag6
ag6
ag6
ag8
ag8
ag13
ag13
ag13
ag13
ag13
ag13
ag13
ag13
ag13
ag13
ag8
ag13
ag13
ag13
ag13
ag11
ag6
ag6
ag6
ag6
ag6
ag6
ag6
ag6
ag6
ag6
ag6
ag6
ag6
ag6
ag6
ag6
ag6
ag6
ag6
ag6
ag6
ag6
ag6
ag6
ag6
ag3
ag3
aa(lp24
g3
ag3
ag6
ag6
ag6
ag8
ag8
ag8
ag13
ag13
ag8
ag8
ag13
ag13
ag13
ag13
ag8
aS'sols'
p25
ag13
ag13
ag8
ag11
ag8
ag8
ag6
ag6
ag6
ag6
ag6
ag6
ag6
ag6
ag6
ag6
ag6
ag6
ag6
ag6
ag6
ag6
ag6
ag6
ag6
ag6
ag6
ag6
ag6
ag6
ag3
ag3
aa(lp26
g3
ag3
ag6
ag6
ag6
ag8
ag8
ag8
ag8
ag8
ag8
ag8
ag8
ag8
ag8
ag8
ag8
ag8
ag8
ag13
ag8
ag13
ag6
ag8
ag6
ag6
ag6
ag6
ag6
ag6
ag6
ag6
ag6
ag6
ag6
ag6
ag6
ag6
ag6
ag6
ag6
ag6
ag6
ag6
ag6
ag6
ag6
ag6
ag3
ag3
aa(lp27
g3
ag3
ag6
ag6
ag6
ag8
ag8
ag8
ag8
ag8
ag6
ag8
ag6
ag6
ag8
ag8
ag8
ag8
ag6
ag6
ag6
ag6
ag6
ag6
ag6
ag6
ag6
ag6
ag6
ag6
ag6
ag6
ag6
ag6
ag6
ag6
ag6
ag6
ag6
ag6
ag6
ag6
ag6
ag6
ag6
ag6
ag6
ag6
ag3
ag3
aa(lp28
g3
ag3
ag6
ag6
ag6
ag6
ag6
ag6
ag6
ag6
ag6
ag6
ag6
ag6
ag6
ag6
ag6
ag6
ag6
ag6
ag6
ag6
ag6
ag6
ag6
ag6
ag6
ag6
ag6
ag6
ag6
ag6
ag6
ag6
ag6
ag6
ag6
ag6
ag6
ag6
ag6
ag6
ag6
ag6
ag6
ag6
ag6
ag6
ag3
ag3
aa(lp29
g3
ag3
ag6
ag6
ag6
ag6
ag6
ag6
ag6
ag6
ag6
ag6
ag6
ag6
ag8
ag8
ag8
ag8
ag6
ag6
ag6
ag6
ag6
ag6
ag6
ag6
ag6
ag6
ag6
ag6
ag6
ag6
ag6
ag6
ag6
ag6
ag6
ag6
ag6
ag6
ag6
ag6
ag6
ag6
ag6
ag6
ag6
ag6
ag3
ag3
aa(lp30
g3
ag3
ag6
ag6
ag6
ag6
ag6
ag6
ag6
ag6
ag6
ag6
ag6
ag6
ag8
ag8
ag8
ag8
ag6
ag6
ag6
ag6
ag6
ag6
ag6
ag6
ag6
ag6
ag6
ag6
ag6
ag6
ag6
ag6
ag6
ag6
ag6
ag6
ag6
ag6
ag6
ag6
ag6
ag6
ag6
ag6
ag6
ag6
ag3
ag3
aa(lp31
g3
ag3
ag6
ag6
ag6
ag6
ag6
ag6
ag6
ag6
ag6
ag6
ag6
ag6
ag6
ag6
ag6
ag6
ag6
ag6
ag6
ag6
ag6
ag6
ag6
ag6
ag6
ag6
ag6
ag6
ag6
ag6
ag6
ag6
ag6
ag6
ag6
ag6
ag6
ag6
ag6
ag6
ag6
ag6
ag6
ag6
ag6
ag6
ag3
ag3
aa(lp32
g3
ag3
aS'murs'
p33
ag33
ag6
ag6
ag6
ag6
ag6
ag6
ag6
ag6
ag6
ag6
ag6
ag6
ag6
ag6
ag6
ag6
ag6
ag6
aS'sols'
p34
ag6
ag6
ag6
ag6
ag6
aS'trous'
p35
ag6
ag6
ag6
ag6
ag6
ag6
ag6
ag6
ag6
ag6
ag6
ag6
ag6
ag6
ag6
ag6
ag6
ag6
ag6
ag3
ag3
aa(lp36
g3
ag3
ag6
ag6
ag6
ag6
ag6
ag6
ag6
ag6
ag6
ag6
ag6
ag6
ag6
ag6
ag6
ag6
ag6
ag6
ag6
ag6
ag34
ag6
ag6
ag35
ag6
ag35
ag35
ag35
ag6
ag6
ag6
ag6
ag6
ag6
ag6
ag6
ag6
ag6
ag6
ag6
ag6
ag6
ag6
ag6
ag6
ag6
ag3
ag3
aa(lp37
g3
aS'murs'
p38
ag6
ag6
ag6
ag6
ag6
ag6
ag6
ag6
ag6
ag6
ag6
ag6
ag6
ag6
ag6
ag6
ag6
ag6
ag6
ag6
ag34
ag6
ag35
ag35
ag35
ag35
ag35
ag6
ag35
ag35
ag6
ag6
ag6
ag6
ag6
ag6
ag6
ag6
ag6
ag6
ag6
ag6
ag6
ag6
ag6
ag6
ag3
ag3
aa(lp39
g3
ag3
ag33
ag33
ag6
ag6
ag6
ag6
ag6
ag6
ag6
ag6
ag6
ag6
ag6
ag6
ag6
ag6
ag6
ag6
ag6
ag6
ag6
ag6
ag6
ag35
ag35
ag35
ag35
ag35
ag35
ag35
ag6
ag35
ag6
ag6
ag6
ag6
ag6
ag6
ag6
ag6
ag6
ag6
ag6
ag6
ag6
ag6
ag3
ag3
aa(lp40
g3
ag3
ag6
ag6
ag6
ag6
ag6
ag6
ag6
ag6
ag6
ag6
ag6
ag6
ag6
ag6
ag6
ag6
ag6
ag6
ag6
ag6
ag6
ag34
ag35
ag35
ag35
ag35
ag35
ag35
ag35
ag6
ag35
ag35
ag6
ag6
ag35
ag35
ag6
ag6
aS'sols'
p41
ag41
ag41
ag6
ag6
ag6
ag6
ag6
ag3
ag3
aa(lp42
g3
ag3
ag6
ag6
ag6
ag6
ag6
ag6
ag6
ag6
ag6
ag6
ag6
ag6
ag6
ag6
ag6
ag6
ag6
ag6
ag6
ag6
ag6
ag35
ag35
ag35
ag35
ag35
ag35
ag35
ag35
ag35
ag35
ag41
ag35
ag35
ag35
ag35
ag41
ag13
ag41
ag41
ag35
ag13
ag13
ag6
ag6
ag6
ag3
ag3
aa(lp43
g3
ag3
ag6
ag6
ag6
ag6
ag6
ag6
ag6
ag6
ag6
ag6
ag6
ag6
ag6
ag6
ag6
ag6
ag6
ag6
ag6
ag6
ag6
ag34
ag6
ag6
ag35
ag35
ag35
ag35
ag35
ag35
ag35
ag41
ag13
ag35
ag35
ag41
ag41
ag13
ag13
ag13
ag13
ag41
ag13
ag6
ag6
ag6
ag3
ag3
aa(lp44
g3
ag3
ag6
ag6
ag6
ag6
ag6
ag6
ag6
ag6
ag6
ag6
ag6
ag6
ag6
ag6
ag6
ag6
ag6
ag6
ag6
ag6
ag6
ag6
ag35
ag35
ag35
ag35
ag35
ag35
ag35
ag35
ag35
ag13
ag13
ag13
ag13
ag13
ag13
ag41
ag41
ag13
ag41
ag41
ag13
ag6
ag6
ag6
ag3
ag3
aa(lp45
g3
ag3
ag6
ag6
ag6
ag6
ag6
ag6
ag6
ag6
ag6
ag6
ag6
ag6
ag6
ag6
ag6
ag6
ag6
ag6
ag6
ag6
ag6
ag6
ag35
ag34
ag34
ag35
ag34
ag35
ag35
ag13
ag13
ag13
ag13
ag13
ag13
ag13
ag13
ag13
ag13
ag13
ag41
ag41
ag41
ag6
ag6
ag6
ag3
ag3
aa(lp46
g3
ag3
ag6
ag6
ag6
ag6
ag6
ag6
ag6
ag6
ag6
ag6
ag6
ag6
ag6
ag6
ag6
ag6
ag6
ag6
ag6
ag6
ag6
ag6
ag6
ag34
ag34
ag35
ag34
ag34
ag35
ag13
ag13
ag13
ag13
ag13
ag13
ag35
ag13
ag13
ag13
ag41
ag41
ag41
ag41
ag6
ag6
ag6
ag3
ag3
aa(lp47
g3
ag3
ag6
ag6
ag6
ag6
ag6
ag6
ag6
ag6
ag6
ag6
ag6
ag6
ag6
ag6
ag6
ag6
ag6
ag6
ag6
ag6
ag6
ag6
ag6
ag6
ag6
ag41
ag41
ag41
ag34
ag34
ag13
ag13
ag13
ag13
ag13
ag13
ag35
ag35
ag13
ag13
ag13
ag13
ag13
ag6
ag6
ag6
ag3
ag3
aa(lp48
g3
ag3
ag6
ag6
ag6
ag6
ag6
ag6
ag6
ag6
ag6
ag6
ag6
ag6
ag6
ag6
ag6
ag6
ag6
ag6
ag6
ag6
ag6
ag6
ag6
ag6
ag6
ag41
ag41
ag41
ag41
ag13
ag13
ag13
ag13
ag13
ag13
ag13
ag35
ag35
ag13
ag13
ag13
ag41
ag41
ag41
ag41
ag6
ag3
ag3
aa(lp49
g3
ag3
ag6
ag6
ag6
ag6
ag6
ag6
ag6
ag6
ag6
ag6
ag6
ag6
ag6
ag6
ag6
ag6
ag6
ag6
ag6
ag6
ag6
ag6
ag6
ag6
ag6
ag41
ag41
ag13
ag13
ag13
ag13
ag13
ag13
ag13
ag13
ag13
ag35
ag35
ag13
ag41
ag41
ag41
ag13
ag6
ag6
ag6
ag3
ag3
aa(lp50
g3
ag3
ag6
ag6
ag6
ag6
ag6
ag6
ag6
ag6
ag6
ag6
ag6
ag6
ag6
ag6
ag6
ag6
ag6
ag6
ag6
ag6
ag6
ag6
ag6
ag6
ag41
ag6
ag13
ag13
ag13
ag13
ag35
ag35
ag35
ag13
ag13
ag13
ag13
ag13
ag34
ag41
ag41
ag41
ag41
ag6
ag6
ag6
ag3
ag3
aa(lp51
g3
ag3
ag6
ag6
ag6
ag6
ag6
ag6
ag6
ag6
ag6
ag6
ag6
ag6
ag6
ag6
ag6
ag6
ag6
ag6
ag6
ag6
ag6
ag6
ag6
ag6
ag6
ag6
ag41
ag41
ag41
ag13
ag35
ag35
ag35
ag13
ag13
ag13
ag13
ag13
ag34
ag41
ag41
ag41
ag41
ag41
ag41
ag6
ag3
ag3
aa(lp52
g3
ag3
ag6
ag6
ag6
ag6
ag6
ag6
ag6
ag6
ag6
ag6
ag6
ag6
ag6
ag6
ag6
ag6
ag6
ag6
ag6
ag6
ag6
ag6
ag6
ag6
ag6
ag6
ag41
ag41
ag13
ag13
ag35
ag35
ag35
ag13
ag35
ag35
ag13
ag13
ag13
ag41
ag13
ag13
ag13
ag41
ag41
ag6
ag3
ag3
aa(lp53
g3
ag3
ag6
ag6
ag6
ag6
ag6
ag6
ag6
ag6
ag6
ag6
ag6
ag6
ag6
ag6
ag6
ag6
ag6
ag6
ag6
ag6
ag6
ag6
ag6
ag6
ag6
ag6
ag41
ag41
ag13
ag13
ag35
ag35
ag35
ag13
ag35
ag35
ag13
ag13
ag13
ag41
ag13
ag13
ag41
ag41
ag6
ag6
ag3
ag3
aa(lp54
g3
ag3
ag6
ag6
ag6
ag6
ag6
ag6
ag6
ag6
ag6
ag6
ag6
ag6
ag6
ag6
ag6
ag6
ag6
ag6
ag6
ag6
ag6
ag6
ag6
ag6
ag6
ag6
ag13
ag13
ag13
ag13
ag35
ag35
ag35
ag13
ag35
ag35
ag35
ag35
ag35
ag41
ag13
ag41
ag41
ag41
ag6
ag6
ag3
ag3
aa(lp55
g3
ag3
ag6
ag6
ag6
ag6
ag6
ag6
ag6
ag6
ag6
ag6
ag6
ag6
ag6
ag6
ag6
ag6
ag6
ag6
ag6
ag6
ag6
ag6
ag6
ag6
ag6
ag41
ag41
ag41
ag41
ag13
ag13
ag13
ag13
ag13
ag13
ag41
ag41
ag41
ag35
ag41
ag41
ag13
ag41
ag41
ag6
ag6
ag3
ag3
aa(lp56
g3
ag3
ag6
ag6
ag6
ag6
ag6
ag6
ag6
ag6
ag6
ag6
ag6
ag6
ag6
ag6
ag6
ag6
ag6
ag6
ag6
ag6
ag6
ag6
ag6
ag6
ag6
ag6
ag41
ag41
ag41
ag41
ag13
ag41
ag41
ag13
ag13
ag41
ag41
ag41
ag41
ag41
ag13
ag13
ag13
ag6
ag6
ag6
ag3
ag3
aa(lp57
g3
ag3
ag6
ag6
ag6
ag6
ag6
ag6
ag6
ag6
ag6
ag6
ag6
ag6
ag6
ag6
ag6
ag6
ag6
ag6
ag6
ag6
ag6
ag6
ag6
ag6
ag6
ag6
ag41
ag41
ag41
ag41
ag41
ag41
ag41
ag41
ag41
ag13
ag41
ag41
ag41
ag41
ag41
aS'trous'
p58
ag13
ag58
ag6
ag6
ag3
ag3
aa(lp59
g3
ag3
ag6
ag6
ag6
ag6
ag6
ag6
ag6
ag6
ag6
ag6
ag6
ag6
ag6
ag6
ag6
ag6
ag6
ag6
ag6
ag6
ag6
ag6
ag6
ag6
ag6
ag6
ag41
ag41
ag41
ag41
ag6
ag6
ag41
ag6
ag6
ag6
ag41
ag41
ag41
ag41
ag41
ag6
ag41
ag6
ag6
ag6
ag3
ag3
aa(lp60
g3
ag3
ag6
ag6
ag6
ag6
ag6
ag6
ag6
ag6
ag6
ag6
ag6
ag6
ag6
ag6
ag6
ag6
ag6
ag6
ag6
ag6
ag6
ag6
ag6
ag6
ag6
ag6
ag41
ag41
ag6
ag6
ag6
ag41
ag6
ag6
ag6
ag6
ag6
ag6
ag6
ag6
ag6
ag6
ag6
ag6
ag6
ag6
ag3
ag3
aa(lp61
g3
ag3
ag6
ag6
ag6
ag6
ag6
ag6
ag6
ag6
ag6
ag6
ag6
ag6
ag6
ag6
ag6
ag6
ag6
ag6
ag6
ag6
ag6
ag6
ag6
ag6
ag6
ag6
ag6
ag6
ag6
ag6
ag6
ag6
ag6
ag6
ag6
ag6
ag6
ag6
ag6
ag6
ag6
ag6
ag6
ag6
ag6
ag6
ag3
ag3
aa(lp62
g3
ag3
ag6
ag6
ag6
ag6
ag6
ag6
ag6
ag6
ag6
ag6
ag6
ag6
ag6
ag6
ag6
ag6
ag6
ag6
ag6
ag6
ag6
ag6
ag6
ag6
ag6
ag6
ag6
ag6
ag6
ag6
ag6
ag6
ag6
ag6
ag6
ag6
ag6
ag6
ag6
ag6
ag6
ag6
ag6
ag6
ag6
ag6
ag3
ag3
aa(lp63
g3
ag3
ag3
ag3
ag3
ag3
ag3
ag3
ag3
ag3
ag3
ag3
ag3
ag3
ag3
ag3
ag3
ag3
ag3
ag3
ag3
ag3
ag3
ag3
ag3
ag3
ag3
ag3
ag3
ag3
ag3
ag3
ag3
ag3
ag3
ag3
ag3
ag3
ag3
ag3
ag3
ag3
ag3
ag3
ag3
ag3
ag3
ag3
ag3
ag3
aa(lp64
g3
ag3
ag3
ag3
ag3
ag3
ag3
ag3
ag3
ag3
ag3
ag3
ag3
ag3
ag3
ag3
ag3
ag3
ag3
ag3
ag3
ag3
ag3
ag3
ag3
ag3
ag3
ag3
ag3
ag3
ag3
ag3
ag3
ag3
ag3
ag3
ag3
ag3
ag3
ag3
ag3
ag3
ag3
ag3
ag3
ag3
ag3
ag3
ag3
ag3
aaa(lp65
(lp66
S''
p67
ag67
ag67
ag67
ag67
ag67
ag67
ag67
ag67
ag67
ag67
ag67
ag67
ag67
ag67
ag67
ag67
ag67
ag67
ag67
ag67
ag67
ag67
ag67
ag67
ag67
ag67
ag67
ag67
ag67
ag67
ag67
ag67
ag67
ag67
ag67
ag67
ag67
ag67
ag67
ag67
ag67
ag67
ag67
ag67
ag67
ag67
ag67
ag67
ag67
aa(lp68
g67
ag67
ag67
ag67
ag67
ag67
ag67
ag67
ag67
ag67
ag67
ag67
ag67
ag67
ag67
ag67
ag67
ag67
ag67
ag67
ag67
ag67
ag67
ag67
ag67
ag67
ag67
ag67
ag67
ag67
ag67
ag67
ag67
ag67
ag67
ag67
ag67
ag67
ag67
ag67
ag67
ag67
ag67
ag67
ag67
ag67
ag67
ag67
ag67
ag67
aa(lp69
g67
ag67
ag67
ag67
aS'Stalagmites'
p70
ag70
ag67
ag67
ag67
ag67
ag67
ag67
ag67
aS'Stalagmites'
p71
ag67
ag67
ag67
ag67
ag67
ag67
ag67
ag67
ag67
ag67
ag67
ag67
ag67
ag71
ag67
ag67
ag67
ag67
ag67
ag67
ag67
ag67
ag67
ag67
ag67
ag67
ag67
ag67
ag67
ag67
ag71
ag67
ag67
ag67
aS'porte'
p72
ag67
aa(lp73
g67
ag67
ag70
ag67
ag67
ag67
ag67
ag67
ag71
ag67
ag71
ag67
ag67
ag67
ag67
ag67
ag67
ag67
ag67
ag67
ag67
ag67
ag67
ag67
ag67
ag67
ag71
ag71
ag71
ag67
ag67
ag67
ag71
ag71
ag67
ag71
aS'Stalagmites'
p74
ag67
ag74
ag67
ag67
ag67
ag71
ag67
ag67
ag67
ag67
ag67
ag67
ag67
aa(lp75
g67
ag67
ag67
ag71
ag67
ag67
ag67
ag67
ag67
ag67
ag67
ag71
ag67
ag71
ag67
ag67
ag67
ag67
ag67
ag67
ag67
ag67
ag71
ag71
ag67
ag67
ag71
ag71
ag71
ag67
ag67
ag67
ag67
ag67
ag71
ag71
ag67
ag67
ag67
ag67
ag71
ag67
ag67
ag67
ag70
ag67
ag67
ag67
ag67
ag67
aa(lp76
g67
ag67
ag67
ag71
ag67
ag67
ag67
ag67
ag67
ag67
ag71
ag71
ag67
ag67
ag71
ag67
ag67
ag67
ag67
ag67
ag67
ag67
ag67
ag67
ag67
ag67
ag67
ag67
ag67
ag71
ag67
ag67
ag71
ag71
ag67
ag71
ag67
ag71
ag71
ag67
ag71
ag67
ag67
ag67
ag67
ag67
ag71
ag67
ag67
ag67
aa(lp77
g67
ag67
ag67
ag67
ag67
ag67
ag67
ag67
ag67
ag67
ag67
ag67
ag67
ag67
ag67
ag67
ag67
ag67
ag67
ag67
ag67
ag67
ag67
ag67
ag67
ag71
ag71
ag71
ag67
ag67
ag67
ag67
ag67
ag67
ag67
ag71
ag67
ag71
ag67
ag67
ag67
ag67
ag67
ag67
ag67
ag67
ag71
ag67
ag67
ag67
aa(lp78
g67
ag67
ag67
ag71
ag67
ag67
ag67
ag67
ag67
ag67
ag67
ag67
ag67
ag67
ag67
ag67
ag67
ag67
ag67
ag67
ag67
ag67
ag67
ag67
ag67
ag71
ag71
ag71
ag67
ag71
ag67
ag67
ag67
ag71
ag67
ag67
ag67
ag70
ag67
ag67
ag67
ag71
ag71
ag67
ag67
ag71
ag71
ag67
ag67
ag67
aa(lp79
g67
ag67
ag67
ag67
ag71
ag71
ag67
ag67
ag67
ag67
ag67
ag67
ag67
ag67
ag67
ag67
ag67
ag67
ag74
ag67
ag67
ag67
ag74
ag67
ag67
ag67
ag71
ag71
ag71
ag67
ag71
ag71
ag71
ag71
ag67
ag67
ag67
ag70
ag67
ag67
ag67
ag71
ag71
ag67
ag67
ag71
ag67
ag67
ag67
ag67
aa(lp80
g67
ag67
ag71
ag67
ag71
ag71
ag67
ag67
ag67
ag67
ag67
ag67
ag67
ag67
ag67
ag67
ag67
ag67
ag67
ag67
ag67
ag67
ag67
ag67
ag67
ag67
ag67
ag67
ag67
ag67
ag67
ag67
ag71
ag71
ag67
ag67
ag67
ag67
ag67
ag67
ag67
ag67
ag67
ag67
ag67
ag71
ag71
ag67
ag67
ag67
aa(lp81
g67
ag67
ag67
ag67
ag67
ag67
ag67
ag67
ag67
ag67
ag67
ag67
ag67
ag67
ag67
ag67
ag67
ag67
ag67
ag67
ag67
ag67
ag67
ag67
ag71
ag67
ag67
ag67
ag67
ag74
ag67
ag67
ag67
ag67
ag67
ag71
ag67
ag71
ag67
ag71
ag71
ag67
ag67
ag67
ag67
ag67
ag67
ag67
ag67
ag67
aa(lp82
g67
ag67
ag67
ag67
ag67
ag67
ag67
ag67
ag67
ag67
ag67
ag67
ag67
ag67
ag67
ag67
ag67
ag67
ag67
ag67
ag67
ag67
ag67
ag67
ag67
ag67
ag71
ag67
ag67
ag67
ag74
ag74
ag67
ag71
ag67
ag71
ag67
ag67
ag67
ag67
ag67
ag67
ag67
ag67
ag67
ag67
ag67
ag67
ag67
ag67
aa(lp83
g67
ag67
ag71
ag71
ag71
ag67
ag67
ag67
ag67
ag67
ag67
ag67
ag67
ag67
ag67
ag67
ag67
ag67
ag67
ag67
ag67
ag67
ag67
ag67
ag67
ag67
ag67
ag67
ag71
ag71
ag67
ag67
ag67
ag71
ag67
ag71
ag67
ag67
ag71
ag67
ag71
ag67
ag67
ag71
ag71
ag71
ag71
ag67
ag67
ag67
aa(lp84
g67
ag67
ag71
ag71
ag71
ag67
ag67
ag67
ag67
ag67
ag67
ag67
ag67
ag67
ag67
ag67
ag67
ag67
ag67
ag67
ag67
ag67
ag67
ag71
ag67
ag71
ag67
ag67
ag71
ag71
ag67
ag67
ag67
ag71
ag71
ag71
ag67
ag67
ag67
ag67
ag71
ag67
ag67
ag67
ag71
ag71
ag71
ag67
ag67
ag67
aa(lp85
g67
ag67
ag67
ag67
ag67
ag67
ag67
ag67
ag67
ag67
ag67
ag67
ag67
ag67
ag67
ag67
ag67
ag67
ag67
ag67
ag67
ag67
ag67
ag67
ag67
ag71
ag67
ag71
ag71
ag71
ag67
ag67
ag67
ag71
ag71
ag71
ag67
ag67
ag67
ag71
ag71
ag67
ag67
ag71
ag71
ag67
ag67
ag67
ag67
ag67
aa(lp86
g67
ag67
ag67
ag71
ag67
ag67
ag67
ag67
ag67
ag67
ag67
ag67
ag67
ag67
ag67
ag67
ag67
ag67
ag67
ag67
ag67
ag67
ag67
ag67
ag71
ag71
ag67
ag67
ag67
ag67
ag67
ag71
ag71
ag67
ag67
ag67
ag71
ag67
ag71
ag71
ag71
ag67
ag67
ag71
ag71
ag67
ag67
ag67
ag67
ag67
aa(lp87
g67
ag67
ag67
ag67
ag67
ag67
ag67
ag70
ag67
ag67
ag67
ag67
ag67
ag67
ag67
ag67
ag67
ag67
ag67
ag67
ag67
ag67
ag67
ag71
ag71
ag67
ag67
ag67
ag67
ag67
ag67
ag67
ag67
ag67
ag67
ag67
ag71
ag67
ag67
ag67
ag71
ag67
ag67
ag67
ag67
ag67
ag67
ag67
ag67
ag67
aa(lp88
g67
ag67
ag67
ag67
ag71
ag71
ag67
ag67
ag67
ag67
ag67
ag67
ag67
ag67
ag67
ag67
ag67
ag67
ag67
ag67
ag67
ag67
ag67
ag67
ag71
ag71
ag71
ag71
ag67
ag67
ag67
ag71
ag67
ag67
ag67
ag67
ag67
ag67
ag67
ag67
ag67
ag67
ag67
ag67
ag70
ag67
ag70
ag67
ag67
ag67
aa(lp89
g67
ag67
ag67
ag71
ag67
ag67
ag67
ag67
ag67
ag67
ag71
ag67
ag67
ag71
ag71
ag67
ag67
ag67
ag67
ag71
ag71
ag67
ag71
ag71
ag71
ag67
ag67
ag67
ag67
ag71
ag67
ag67
ag67
ag67
ag67
ag67
ag71
ag67
ag71
ag67
ag71
ag71
ag71
ag67
ag70
ag67
ag67
ag67
ag67
ag67
aa(lp90
g67
ag67
ag67
ag67
ag67
ag71
ag67
ag70
ag67
ag67
ag71
ag67
ag67
ag67
ag67
ag67
ag67
ag67
ag67
ag71
ag71
ag67
ag67
ag67
ag67
ag67
ag71
ag71
ag71
ag71
ag67
ag71
ag71
ag67
ag71
ag67
ag71
ag71
ag71
ag71
ag71
ag71
ag67
ag67
ag67
ag67
ag67
ag67
ag67
ag67
aa(lp91
g67
ag67
ag67
ag67
ag67
ag71
ag67
ag70
ag67
ag67
ag71
ag67
ag71
ag67
ag71
ag67
ag67
ag67
ag71
ag67
ag67
ag67
ag67
ag67
ag67
ag67
ag70
ag67
ag67
ag67
ag67
ag71
ag71
ag67
ag71
ag71
ag71
ag67
ag71
ag67
ag67
ag71
ag67
ag71
ag67
ag71
ag67
ag67
ag67
ag67
aa(lp92
g67
ag67
ag71
ag67
ag67
ag71
ag67
ag67
ag67
ag67
ag67
ag71
ag67
ag67
ag71
ag67
ag67
ag67
ag71
ag67
ag67
ag71
ag67
ag71
ag67
ag67
ag67
ag70
ag70
ag67
ag67
ag67
ag71
ag67
ag67
ag71
ag71
ag67
ag67
ag67
ag67
ag67
ag71
ag67
ag67
ag71
ag67
ag67
ag67
ag67
aa(lp93
g67
ag67
ag71
ag67
ag67
ag71
ag70
ag67
ag67
ag71
ag71
ag71
ag67
ag67
ag71
ag67
ag71
ag71
ag67
ag67
ag67
ag71
ag67
ag71
ag67
ag67
ag67
ag70
ag70
ag67
ag67
ag67
ag67
ag67
ag71
ag67
ag67
ag67
ag67
ag67
ag67
ag71
ag71
ag71
ag67
ag67
ag67
ag70
ag67
ag67
aa(lp94
g67
ag67
ag67
ag67
ag67
ag71
ag70
ag70
ag67
ag71
ag71
ag71
ag67
ag67
ag67
ag67
ag71
ag71
ag71
ag67
ag67
ag70
ag67
ag71
ag67
ag67
ag67
ag67
ag67
ag67
ag67
ag67
ag67
ag67
ag71
ag67
ag70
ag70
ag67
ag67
ag67
ag67
ag71
ag71
ag71
ag67
ag67
ag67
ag67
ag67
aa(lp95
g67
aS'porte'
p96
ag67
aS'ennemi'
p97
ag67
ag71
ag67
ag67
ag67
ag67
ag67
ag67
ag67
ag67
ag67
ag67
ag67
ag67
ag67
ag67
ag67
ag67
ag67
ag67
ag67
ag67
ag67
ag67
ag67
ag67
ag67
ag70
ag67
ag67
ag67
ag67
ag67
ag67
ag67
ag67
ag67
ag71
ag67
ag67
ag67
ag67
ag71
ag67
ag67
ag67
aa(lp98
g67
ag67
aS'coffre'
p99
ag97
ag67
ag71
ag71
ag71
ag71
ag67
ag71
ag71
ag71
ag67
ag71
ag71
ag71
ag71
ag71
ag67
ag70
ag70
ag67
ag70
ag67
ag67
ag67
ag67
ag67
ag67
ag67
ag67
ag67
ag67
ag67
ag67
ag67
ag67
ag70
ag67
ag67
ag67
ag67
ag67
ag67
ag67
ag67
ag67
ag67
ag67
aa(lp100
g67
ag67
ag67
ag67
ag71
ag71
ag67
ag71
ag67
ag67
ag67
ag71
ag71
ag67
ag71
ag67
ag67
ag71
ag71
ag67
ag67
ag67
ag70
ag67
ag67
ag67
ag67
ag67
ag67
ag67
ag67
ag67
ag67
ag67
ag67
ag67
ag67
ag67
ag70
ag67
ag70
ag67
ag70
ag67
ag67
ag67
ag71
ag67
ag67
ag67
aa(lp101
g67
ag67
ag67
ag71
ag71
ag71
ag71
ag71
ag71
ag67
ag71
ag67
ag67
ag67
ag71
ag71
ag67
ag67
ag67
ag67
ag67
ag67
ag70
ag67
ag67
ag67
ag67
ag67
ag67
ag67
ag67
ag67
ag67
ag67
ag67
ag67
ag67
ag67
ag67
ag67
ag67
ag67
ag67
ag67
ag67
ag67
ag71
ag67
ag67
ag67
aa(lp102
g67
ag67
ag67
ag71
ag71
ag71
ag67
ag67
ag67
ag67
ag67
ag67
ag67
ag67
ag67
ag67
ag70
ag67
ag67
ag70
ag67
ag67
ag67
ag67
ag67
ag67
ag67
ag67
ag67
ag67
ag67
ag67
ag67
ag67
ag67
ag67
ag67
ag67
ag67
ag67
ag67
ag67
ag67
ag67
ag67
ag67
ag67
ag67
ag67
ag67
aa(lp103
g67
ag67
ag67
ag67
ag70
ag71
ag70
ag67
ag67
ag67
ag67
ag67
ag67
ag67
ag67
ag67
ag70
ag67
ag67
ag70
ag67
ag67
ag67
ag70
ag67
ag67
ag67
ag67
ag67
ag67
ag67
ag67
ag67
ag67
ag67
ag67
ag67
ag67
ag67
ag67
ag67
ag67
ag67
ag67
ag67
ag67
ag67
ag67
ag67
ag67
aa(lp104
g67
ag67
ag67
ag67
ag67
ag71
ag67
ag67
ag71
ag71
ag71
ag67
ag71
ag71
ag71
ag71
ag70
ag67
ag67
ag67
ag67
ag67
ag67
ag67
ag67
ag67
ag67
ag67
ag67
ag67
ag67
ag67
ag67
ag67
ag67
ag67
ag67
ag67
ag67
ag67
ag67
ag67
ag67
ag67
ag67
ag67
ag67
ag67
ag67
ag67
aa(lp105
g67
ag67
ag67
ag67
ag70
ag71
ag67
ag67
ag71
ag71
ag71
ag71
ag71
ag71
ag67
ag71
ag67
ag67
ag67
ag67
ag67
ag67
ag67
ag67
ag67
ag67
ag67
ag67
ag67
ag67
ag67
ag67
ag67
ag67
ag67
ag67
ag67
ag67
ag67
ag67
ag67
ag67
ag67
ag67
ag67
ag67
ag67
ag71
ag67
ag67
aa(lp106
g67
ag67
ag67
ag67
ag67
ag71
ag67
ag67
ag67
ag67
ag67
ag67
ag67
ag67
ag67
ag67
ag67
ag67
ag67
ag71
ag71
ag71
ag67
ag71
ag67
ag67
ag67
ag67
ag67
ag67
ag67
ag67
ag67
ag67
ag67
ag67
ag67
ag67
ag67
ag67
ag67
ag67
ag67
ag67
ag67
ag67
ag67
ag67
ag67
ag67
aa(lp107
g67
ag67
ag67
ag67
ag67
ag67
ag67
ag67
ag67
ag67
ag67
ag67
ag71
ag67
ag70
ag67
ag67
ag67
ag70
ag71
ag71
ag67
ag71
ag71
ag67
ag67
ag67
ag67
ag67
ag70
ag67
ag67
ag67
ag67
ag67
ag67
ag67
ag67
ag67
ag67
ag67
ag67
ag67
ag67
ag67
ag71
ag67
ag67
ag67
ag67
aa(lp108
g67
ag67
ag67
ag67
ag71
ag67
ag71
ag71
ag67
ag71
ag67
ag67
ag71
ag67
ag67
ag67
ag70
ag70
ag67
ag67
ag67
ag67
ag70
ag67
ag67
ag67
ag70
ag67
ag67
ag70
ag67
ag67
ag67
ag67
ag67
ag67
ag67
ag67
ag67
ag67
ag67
ag67
ag67
ag67
ag67
ag71
ag67
ag74
ag67
ag67
aa(lp109
g67
ag67
ag71
ag67
ag71
ag67
ag67
ag71
ag71
ag71
ag71
ag67
ag71
ag67
ag67
ag67
ag67
ag67
ag67
ag67
ag67
ag67
ag67
ag67
ag67
ag67
ag67
ag67
ag67
ag67
ag67
ag67
ag67
ag67
ag67
ag67
ag67
ag67
ag67
ag67
ag67
ag67
ag74
ag67
ag67
ag71
ag67
ag67
ag67
ag67
aa(lp110
g67
ag67
ag71
ag67
ag71
ag71
ag71
ag71
ag67
ag67
ag71
ag71
ag71
ag67
ag71
ag71
ag67
ag67
ag71
ag71
ag71
ag67
ag67
ag67
ag67
ag67
ag67
ag67
ag67
ag67
ag67
ag67
ag67
ag67
ag67
ag67
ag67
ag67
ag67
ag67
ag67
ag74
ag74
ag67
ag67
ag67
ag67
ag67
ag67
ag67
aa(lp111
g67
ag67
ag67
ag71
ag71
ag67
ag67
ag67
ag67
ag67
ag71
ag71
ag71
ag67
ag71
ag67
ag71
ag71
ag67
ag67
ag67
ag67
ag67
ag67
ag70
ag67
ag67
ag67
ag67
ag67
ag67
ag67
ag67
ag67
ag67
ag67
ag67
ag67
ag67
ag67
ag67
ag67
ag67
ag67
ag67
ag67
ag74
ag67
ag67
ag67
aa(lp112
g67
ag67
ag67
ag71
ag71
ag71
ag67
ag67
ag67
ag67
ag67
ag67
ag67
ag71
ag67
ag71
ag67
ag71
ag71
ag71
ag67
ag67
ag71
ag71
ag71
ag71
ag71
ag67
ag67
ag67
ag67
ag67
ag67
ag67
ag67
ag67
ag67
ag67
ag67
ag67
ag67
ag67
ag67
ag67
ag67
ag67
ag74
ag67
ag67
ag67
aa(lp113
g67
ag67
ag67
ag67
ag67
ag67
ag67
ag71
ag71
ag71
ag67
ag67
ag67
ag71
ag71
ag71
ag67
ag67
ag71
ag71
ag71
ag67
ag67
ag67
ag67
ag67
ag67
ag67
ag70
ag67
ag67
ag67
ag67
ag67
ag67
ag67
ag67
ag67
ag67
ag67
ag67
ag67
ag67
ag67
ag67
ag67
ag71
ag67
ag67
ag67
aa(lp114
g67
ag67
ag67
ag71
ag67
ag67
ag67
ag71
ag71
ag71
ag71
ag71
ag67
ag71
ag71
ag71
ag67
ag67
ag67
ag67
ag67
ag67
ag67
ag71
ag67
ag67
ag67
ag67
ag67
ag67
ag67
ag67
ag67
ag67
ag67
ag67
ag67
ag67
ag67
ag67
ag67
ag67
ag67
ag67
ag67
ag67
ag67
ag67
ag67
ag67
aa(lp115
g67
ag67
ag67
ag67
ag67
ag67
ag71
ag71
ag71
ag67
ag67
ag67
ag67
ag67
ag67
ag71
ag74
ag67
ag67
ag74
ag74
ag67
ag67
ag71
ag67
ag70
ag67
ag67
ag67
ag67
ag67
ag67
ag67
ag67
ag67
ag67
ag67
ag67
ag74
ag67
ag67
ag67
ag67
ag67
ag67
ag67
ag67
ag67
ag67
ag67
aa(lp116
g67
ag67
ag67
ag67
ag67
ag71
ag71
ag67
ag67
ag71
ag71
ag71
ag67
ag67
ag67
ag71
ag67
ag67
ag67
ag67
ag67
ag67
ag67
ag67
ag67
ag67
ag67
ag70
ag70
ag70
ag67
ag67
ag67
ag67
ag67
ag67
ag67
ag67
ag74
ag67
ag67
ag67
ag67
ag67
ag67
ag67
ag67
ag74
ag67
ag67
aa(lp117
g67
ag67
ag67
ag67
ag67
ag67
ag71
ag67
ag67
ag67
ag67
ag67
ag71
ag71
ag67
ag67
ag67
ag67
ag67
ag71
ag67
ag67
ag67
ag71
ag67
ag67
ag67
ag67
ag67
ag67
ag67
ag67
ag67
ag67
ag67
ag67
ag67
ag67
ag67
ag67
ag67
ag67
ag67
ag67
ag67
ag67
ag67
ag67
ag67
ag67
aa(lp118
g67
ag67
ag71
ag71
ag67
ag71
ag71
ag67
ag67
ag67
ag67
ag71
ag67
ag67
ag67
ag67
ag71
ag71
ag67
ag71
ag67
ag67
ag67
ag71
ag67
ag70
ag67
ag67
ag67
ag67
ag67
ag71
ag71
ag71
ag67
ag71
ag71
ag67
ag67
ag67
ag67
ag67
ag67
ag67
ag67
ag67
ag67
ag67
ag67
ag67
aa(lp119
g67
ag67
ag71
ag67
ag67
ag67
ag71
ag67
ag67
ag67
ag67
ag71
ag67
ag67
ag67
ag67
ag67
ag71
ag67
ag71
ag71
ag71
ag71
ag71
ag67
ag67
ag71
ag71
ag71
ag67
ag67
ag71
ag67
ag67
ag67
ag67
ag67
ag71
ag67
ag67
ag67
ag71
ag71
ag71
ag67
ag67
ag67
ag67
ag67
ag67
aa(lp120
g67
ag67
ag71
ag71
ag67
ag67
ag67
ag67
ag67
ag67
ag67
ag67
ag67
ag67
ag67
ag67
ag67
ag67
ag71
ag71
ag67
ag67
ag67
ag67
ag67
ag67
ag67
ag67
ag67
ag67
ag71
ag71
ag71
ag67
ag67
ag67
ag67
ag71
ag67
ag67
ag74
ag67
ag67
ag67
ag67
ag67
ag67
ag71
ag67
ag67
aa(lp121
g67
ag67
ag67
ag71
ag67
ag67
ag67
ag67
ag67
ag67
ag67
ag71
ag71
ag71
ag67
ag67
ag71
ag71
ag67
ag71
ag67
ag67
ag67
ag67
ag67
ag67
ag67
ag67
ag67
ag67
ag67
ag67
ag67
ag67
ag67
ag67
ag67
ag67
ag67
ag67
ag67
ag67
ag67
ag67
ag67
ag67
ag67
ag67
ag67
ag67
aa(lp122
g67
ag67
ag67
ag67
ag67
ag67
ag67
ag67
ag67
ag67
ag67
ag67
ag67
ag67
ag67
ag67
ag67
ag67
ag67
ag67
ag67
ag67
ag67
ag67
ag67
ag67
ag67
ag67
ag67
ag67
ag67
ag67
ag67
ag67
ag67
ag67
ag67
ag67
ag67
ag67
ag67
ag67
ag67
ag67
ag67
ag67
ag67
ag67
ag67
ag67
aa(lp123
g67
ag67
ag67
ag67
ag67
ag67
ag67
ag67
ag67
ag67
ag67
ag67
ag67
ag67
ag67
ag67
ag67
ag67
ag67
ag67
ag67
ag67
ag67
ag67
ag67
ag67
ag67
ag67
ag67
ag67
ag67
ag67
ag67
ag67
ag67
ag67
ag67
ag67
ag67
ag67
ag67
ag67
ag67
ag67
ag67
ag67
ag67
ag67
ag67
ag67
aaa.